(lp1
(dp2
S'taskId'
p3
I0
sa(dp4
S'taskId'
p5
I1
sa(dp6
S'taskId'
p7
I2
sa(dp8
S'taskId'
p9
I3
sa(dp10
S'taskId'
p11
I4
sa(dp12
S'taskId'
p13
I5
sa(dp14
S'taskId'
p15
I6
sa(dp16
S'taskId'
p17
I7
sa(dp18
S'taskId'
p19
I8
sa(dp20
S'taskId'
p21
I9
sa(dp22
S'taskId'
p23
I10
sa(dp24
S'taskId'
p25
I11
sa(dp26
S'taskId'
p27
I12
sa(dp28
S'taskId'
p29
I13
sa(dp30
S'taskId'
p31
I14
sa(dp32
S'taskId'
p33
I15
sa(dp34
S'taskId'
p35
I16
sa(dp36
S'taskId'
p37
I17
sa(dp38
S'taskId'
p39
I18
sa(dp40
S'taskId'
p41
I19
sa(dp42
S'taskId'
p43
I20
sa(dp44
S'taskId'
p45
I21
sa(dp46
S'taskId'
p47
I22
sa(dp48
S'taskId'
p49
I23
sa(dp50
S'taskId'
p51
I24
sa(dp52
S'taskId'
p53
I25
sa(dp54
S'taskId'
p55
I26
sa(dp56
S'taskId'
p57
I27
sa(dp58
S'taskId'
p59
I28
sa(dp60
S'taskId'
p61
I29
sa(dp62
S'taskId'
p63
I30
sa(dp64
S'taskId'
p65
I31
sa(dp66
S'taskId'
p67
I32
sa(dp68
S'taskId'
p69
I33
sa(dp70
S'taskId'
p71
I34
sa(dp72
S'taskId'
p73
I35
sa(dp74
S'taskId'
p75
I36
sa(dp76
S'taskId'
p77
I37
sa(dp78
S'taskId'
p79
I38
sa(dp80
S'taskId'
p81
I39
sa(dp82
S'taskId'
p83
I40
sa(dp84
S'taskId'
p85
I41
sa(dp86
S'taskId'
p87
I42
sa(dp88
S'taskId'
p89
I43
sa(dp90
S'taskId'
p91
I44
sa(dp92
S'taskId'
p93
I45
sa(dp94
S'taskId'
p95
I46
sa(dp96
S'taskId'
p97
I47
sa(dp98
S'taskId'
p99
I48
sa(dp100
S'taskId'
p101
I49
sa(dp102
S'taskId'
p103
I50
sa(dp104
S'taskId'
p105
I51
sa(dp106
S'taskId'
p107
I52
sa(dp108
S'taskId'
p109
I53
sa(dp110
S'taskId'
p111
I54
sa(dp112
S'taskId'
p113
I55
sa(dp114
S'taskId'
p115
I56
sa(dp116
S'taskId'
p117
I57
sa(dp118
S'taskId'
p119
I58
sa(dp120
S'taskId'
p121
I59
sa(dp122
S'taskId'
p123
I60
sa(dp124
S'taskId'
p125
I61
sa(dp126
S'taskId'
p127
I62
sa(dp128
S'taskId'
p129
I63
sa(dp130
S'taskId'
p131
I64
sa(dp132
S'taskId'
p133
I65
sa(dp134
S'taskId'
p135
I66
sa(dp136
S'taskId'
p137
I67
sa(dp138
S'taskId'
p139
I68
sa(dp140
S'taskId'
p141
I69
sa(dp142
S'taskId'
p143
I70
sa(dp144
S'taskId'
p145
I71
sa(dp146
S'taskId'
p147
I72
sa(dp148
S'taskId'
p149
I73
sa(dp150
S'taskId'
p151
I74
sa(dp152
S'taskId'
p153
I75
sa(dp154
S'taskId'
p155
I76
sa(dp156
S'taskId'
p157
I77
sa(dp158
S'taskId'
p159
I78
sa(dp160
S'taskId'
p161
I79
sa(dp162
S'taskId'
p163
I80
sa(dp164
S'taskId'
p165
I81
sa(dp166
S'taskId'
p167
I82
sa(dp168
S'taskId'
p169
I83
sa(dp170
S'taskId'
p171
I84
sa(dp172
S'taskId'
p173
I85
sa(dp174
S'taskId'
p175
I86
sa(dp176
S'taskId'
p177
I87
sa(dp178
S'taskId'
p179
I88
sa(dp180
S'taskId'
p181
I89
sa(dp182
S'taskId'
p183
I90
sa(dp184
S'taskId'
p185
I91
sa(dp186
S'taskId'
p187
I92
sa(dp188
S'taskId'
p189
I93
sa(dp190
S'taskId'
p191
I94
sa(dp192
S'taskId'
p193
I95
sa(dp194
S'taskId'
p195
I96
sa(dp196
S'taskId'
p197
I97
sa(dp198
S'taskId'
p199
I98
sa(dp200
S'taskId'
p201
I99
sa(dp202
S'taskId'
p203
I100
sa(dp204
S'taskId'
p205
I101
sa(dp206
S'taskId'
p207
I102
sa(dp208
S'taskId'
p209
I103
sa(dp210
S'taskId'
p211
I104
sa(dp212
S'taskId'
p213
I105
sa(dp214
S'taskId'
p215
I106
sa(dp216
S'taskId'
p217
I107
sa(dp218
S'taskId'
p219
I108
sa(dp220
S'taskId'
p221
I109
sa(dp222
S'taskId'
p223
I110
sa(dp224
S'taskId'
p225
I111
sa(dp226
S'taskId'
p227
I112
sa(dp228
S'taskId'
p229
I113
sa(dp230
S'taskId'
p231
I114
sa(dp232
S'taskId'
p233
I115
sa(dp234
S'taskId'
p235
I116
sa(dp236
S'taskId'
p237
I117
sa(dp238
S'taskId'
p239
I118
sa(dp240
S'taskId'
p241
I119
sa(dp242
S'taskId'
p243
I120
sa(dp244
S'taskId'
p245
I121
sa(dp246
S'taskId'
p247
I122
sa(dp248
S'taskId'
p249
I123
sa(dp250
S'taskId'
p251
I124
sa(dp252
S'taskId'
p253
I125
sa(dp254
S'taskId'
p255
I126
sa(dp256
S'taskId'
p257
I127
sa(dp258
S'taskId'
p259
I128
sa(dp260
S'taskId'
p261
I129
sa(dp262
S'taskId'
p263
I130
sa(dp264
S'taskId'
p265
I131
sa(dp266
S'taskId'
p267
I132
sa(dp268
S'taskId'
p269
I133
sa(dp270
S'taskId'
p271
I134
sa(dp272
S'taskId'
p273
I135
sa(dp274
S'taskId'
p275
I136
sa(dp276
S'taskId'
p277
I137
sa(dp278
S'taskId'
p279
I138
sa(dp280
S'taskId'
p281
I139
sa(dp282
S'taskId'
p283
I140
sa(dp284
S'taskId'
p285
I141
sa(dp286
S'taskId'
p287
I142
sa(dp288
S'taskId'
p289
I143
sa(dp290
S'taskId'
p291
I144
sa(dp292
S'taskId'
p293
I145
sa(dp294
S'taskId'
p295
I146
sa(dp296
S'taskId'
p297
I147
sa(dp298
S'taskId'
p299
I148
sa(dp300
S'taskId'
p301
I149
sa(dp302
S'taskId'
p303
I150
sa(dp304
S'taskId'
p305
I151
sa(dp306
S'taskId'
p307
I152
sa(dp308
S'taskId'
p309
I153
sa(dp310
S'taskId'
p311
I154
sa(dp312
S'taskId'
p313
I155
sa(dp314
S'taskId'
p315
I156
sa(dp316
S'taskId'
p317
I157
sa(dp318
S'taskId'
p319
I158
sa(dp320
S'taskId'
p321
I159
sa(dp322
S'taskId'
p323
I160
sa(dp324
S'taskId'
p325
I161
sa(dp326
S'taskId'
p327
I162
sa(dp328
S'taskId'
p329
I163
sa(dp330
S'taskId'
p331
I164
sa(dp332
S'taskId'
p333
I165
sa(dp334
S'taskId'
p335
I166
sa(dp336
S'taskId'
p337
I167
sa(dp338
S'taskId'
p339
I168
sa(dp340
S'taskId'
p341
I169
sa(dp342
S'taskId'
p343
I170
sa(dp344
S'taskId'
p345
I171
sa(dp346
S'taskId'
p347
I172
sa(dp348
S'taskId'
p349
I173
sa(dp350
S'taskId'
p351
I174
sa(dp352
S'taskId'
p353
I175
sa(dp354
S'taskId'
p355
I176
sa(dp356
S'taskId'
p357
I177
sa(dp358
S'taskId'
p359
I178
sa(dp360
S'taskId'
p361
I179
sa(dp362
S'taskId'
p363
I180
sa(dp364
S'taskId'
p365
I181
sa(dp366
S'taskId'
p367
I182
sa(dp368
S'taskId'
p369
I183
sa(dp370
S'taskId'
p371
I184
sa(dp372
S'taskId'
p373
I185
sa(dp374
S'taskId'
p375
I186
sa(dp376
S'taskId'
p377
I187
sa(dp378
S'taskId'
p379
I188
sa(dp380
S'taskId'
p381
I189
sa(dp382
S'taskId'
p383
I190
sa(dp384
S'taskId'
p385
I191
sa(dp386
S'taskId'
p387
I192
sa(dp388
S'taskId'
p389
I193
sa(dp390
S'taskId'
p391
I194
sa(dp392
S'taskId'
p393
I195
sa(dp394
S'taskId'
p395
I196
sa(dp396
S'taskId'
p397
I197
sa(dp398
S'taskId'
p399
I198
sa(dp400
S'taskId'
p401
I199
sa(dp402
S'taskId'
p403
I200
sa(dp404
S'taskId'
p405
I201
sa(dp406
S'taskId'
p407
I202
sa(dp408
S'taskId'
p409
I203
sa(dp410
S'taskId'
p411
I204
sa(dp412
S'taskId'
p413
I205
sa(dp414
S'taskId'
p415
I206
sa(dp416
S'taskId'
p417
I207
sa(dp418
S'taskId'
p419
I208
sa(dp420
S'taskId'
p421
I209
sa(dp422
S'taskId'
p423
I210
sa(dp424
S'taskId'
p425
I211
sa(dp426
S'taskId'
p427
I212
sa(dp428
S'taskId'
p429
I213
sa(dp430
S'taskId'
p431
I214
sa(dp432
S'taskId'
p433
I215
sa(dp434
S'taskId'
p435
I216
sa(dp436
S'taskId'
p437
I217
sa(dp438
S'taskId'
p439
I218
sa(dp440
S'taskId'
p441
I219
sa(dp442
S'taskId'
p443
I220
sa(dp444
S'taskId'
p445
I221
sa(dp446
S'taskId'
p447
I222
sa(dp448
S'taskId'
p449
I223
sa(dp450
S'taskId'
p451
I224
sa(dp452
S'taskId'
p453
I225
sa(dp454
S'taskId'
p455
I226
sa(dp456
S'taskId'
p457
I227
sa(dp458
S'taskId'
p459
I228
sa(dp460
S'taskId'
p461
I229
sa(dp462
S'taskId'
p463
I230
sa(dp464
S'taskId'
p465
I231
sa(dp466
S'taskId'
p467
I232
sa(dp468
S'taskId'
p469
I233
sa(dp470
S'taskId'
p471
I234
sa(dp472
S'taskId'
p473
I235
sa(dp474
S'taskId'
p475
I236
sa(dp476
S'taskId'
p477
I237
sa(dp478
S'taskId'
p479
I238
sa(dp480
S'taskId'
p481
I239
sa(dp482
S'taskId'
p483
I240
sa(dp484
S'taskId'
p485
I241
sa(dp486
S'taskId'
p487
I242
sa(dp488
S'taskId'
p489
I243
sa(dp490
S'taskId'
p491
I244
sa(dp492
S'taskId'
p493
I245
sa(dp494
S'taskId'
p495
I246
sa(dp496
S'taskId'
p497
I247
sa(dp498
S'taskId'
p499
I248
sa(dp500
S'taskId'
p501
I249
sa(dp502
S'taskId'
p503
I250
sa(dp504
S'taskId'
p505
I251
sa(dp506
S'taskId'
p507
I252
sa(dp508
S'taskId'
p509
I253
sa(dp510
S'taskId'
p511
I254
sa(dp512
S'taskId'
p513
I255
sa(dp514
S'taskId'
p515
I256
sa(dp516
S'taskId'
p517
I257
sa(dp518
S'taskId'
p519
I258
sa(dp520
S'taskId'
p521
I259
sa(dp522
S'taskId'
p523
I260
sa(dp524
S'taskId'
p525
I261
sa(dp526
S'taskId'
p527
I262
sa(dp528
S'taskId'
p529
I263
sa(dp530
S'taskId'
p531
I264
sa(dp532
S'taskId'
p533
I265
sa(dp534
S'taskId'
p535
I266
sa(dp536
S'taskId'
p537
I267
sa(dp538
S'taskId'
p539
I268
sa(dp540
S'taskId'
p541
I269
sa(dp542
S'taskId'
p543
I270
sa(dp544
S'taskId'
p545
I271
sa(dp546
S'taskId'
p547
I272
sa(dp548
S'taskId'
p549
I273
sa(dp550
S'taskId'
p551
I274
sa(dp552
S'taskId'
p553
I275
sa(dp554
S'taskId'
p555
I276
sa(dp556
S'taskId'
p557
I277
sa(dp558
S'taskId'
p559
I278
sa(dp560
S'taskId'
p561
I279
sa(dp562
S'taskId'
p563
I280
sa(dp564
S'taskId'
p565
I281
sa(dp566
S'taskId'
p567
I282
sa(dp568
S'taskId'
p569
I283
sa(dp570
S'taskId'
p571
I284
sa(dp572
S'taskId'
p573
I285
sa(dp574
S'taskId'
p575
I286
sa(dp576
S'taskId'
p577
I287
sa(dp578
S'taskId'
p579
I288
sa(dp580
S'taskId'
p581
I289
sa(dp582
S'taskId'
p583
I290
sa(dp584
S'taskId'
p585
I291
sa(dp586
S'taskId'
p587
I292
sa(dp588
S'taskId'
p589
I293
sa(dp590
S'taskId'
p591
I294
sa(dp592
S'taskId'
p593
I295
sa(dp594
S'taskId'
p595
I296
sa(dp596
S'taskId'
p597
I297
sa(dp598
S'taskId'
p599
I298
sa(dp600
S'taskId'
p601
I299
sa(dp602
S'taskId'
p603
I300
sa(dp604
S'taskId'
p605
I301
sa(dp606
S'taskId'
p607
I302
sa(dp608
S'taskId'
p609
I303
sa(dp610
S'taskId'
p611
I304
sa(dp612
S'taskId'
p613
I305
sa(dp614
S'taskId'
p615
I306
sa(dp616
S'taskId'
p617
I307
sa(dp618
S'taskId'
p619
I308
sa(dp620
S'taskId'
p621
I309
sa(dp622
S'taskId'
p623
I310
sa(dp624
S'taskId'
p625
I311
sa(dp626
S'taskId'
p627
I312
sa(dp628
S'taskId'
p629
I313
sa(dp630
S'taskId'
p631
I314
sa(dp632
S'taskId'
p633
I315
sa(dp634
S'taskId'
p635
I316
sa(dp636
S'taskId'
p637
I317
sa(dp638
S'taskId'
p639
I318
sa(dp640
S'taskId'
p641
I319
sa(dp642
S'taskId'
p643
I320
sa(dp644
S'taskId'
p645
I321
sa(dp646
S'taskId'
p647
I322
sa(dp648
S'taskId'
p649
I323
sa(dp650
S'taskId'
p651
I324
sa(dp652
S'taskId'
p653
I325
sa(dp654
S'taskId'
p655
I326
sa(dp656
S'taskId'
p657
I327
sa(dp658
S'taskId'
p659
I328
sa(dp660
S'taskId'
p661
I329
sa(dp662
S'taskId'
p663
I330
sa(dp664
S'taskId'
p665
I331
sa(dp666
S'taskId'
p667
I332
sa(dp668
S'taskId'
p669
I333
sa(dp670
S'taskId'
p671
I334
sa(dp672
S'taskId'
p673
I335
sa(dp674
S'taskId'
p675
I336
sa(dp676
S'taskId'
p677
I337
sa(dp678
S'taskId'
p679
I338
sa(dp680
S'taskId'
p681
I339
sa(dp682
S'taskId'
p683
I340
sa(dp684
S'taskId'
p685
I341
sa(dp686
S'taskId'
p687
I342
sa(dp688
S'taskId'
p689
I343
sa(dp690
S'taskId'
p691
I344
sa(dp692
S'taskId'
p693
I345
sa(dp694
S'taskId'
p695
I346
sa(dp696
S'taskId'
p697
I347
sa(dp698
S'taskId'
p699
I348
sa(dp700
S'taskId'
p701
I349
sa(dp702
S'taskId'
p703
I350
sa(dp704
S'taskId'
p705
I351
sa(dp706
S'taskId'
p707
I352
sa(dp708
S'taskId'
p709
I353
sa(dp710
S'taskId'
p711
I354
sa(dp712
S'taskId'
p713
I355
sa(dp714
S'taskId'
p715
I356
sa(dp716
S'taskId'
p717
I357
sa(dp718
S'taskId'
p719
I358
sa(dp720
S'taskId'
p721
I359
sa(dp722
S'taskId'
p723
I360
sa(dp724
S'taskId'
p725
I361
sa(dp726
S'taskId'
p727
I362
sa(dp728
S'taskId'
p729
I363
sa(dp730
S'taskId'
p731
I364
sa(dp732
S'taskId'
p733
I365
sa(dp734
S'taskId'
p735
I366
sa(dp736
S'taskId'
p737
I367
sa(dp738
S'taskId'
p739
I368
sa(dp740
S'taskId'
p741
I369
sa(dp742
S'taskId'
p743
I370
sa(dp744
S'taskId'
p745
I371
sa(dp746
S'taskId'
p747
I372
sa(dp748
S'taskId'
p749
I373
sa(dp750
S'taskId'
p751
I374
sa(dp752
S'taskId'
p753
I375
sa(dp754
S'taskId'
p755
I376
sa(dp756
S'taskId'
p757
I377
sa(dp758
S'taskId'
p759
I378
sa(dp760
S'taskId'
p761
I379
sa(dp762
S'taskId'
p763
I380
sa(dp764
S'taskId'
p765
I381
sa(dp766
S'taskId'
p767
I382
sa(dp768
S'taskId'
p769
I383
sa(dp770
S'taskId'
p771
I384
sa(dp772
S'taskId'
p773
I385
sa(dp774
S'taskId'
p775
I386
sa(dp776
S'taskId'
p777
I387
sa(dp778
S'taskId'
p779
I388
sa(dp780
S'taskId'
p781
I389
sa(dp782
S'taskId'
p783
I390
sa(dp784
S'taskId'
p785
I391
sa(dp786
S'taskId'
p787
I392
sa(dp788
S'taskId'
p789
I393
sa(dp790
S'taskId'
p791
I394
sa(dp792
S'taskId'
p793
I395
sa(dp794
S'taskId'
p795
I396
sa(dp796
S'taskId'
p797
I397
sa(dp798
S'taskId'
p799
I398
sa(dp800
S'taskId'
p801
I399
sa(dp802
S'taskId'
p803
I400
sa(dp804
S'taskId'
p805
I401
sa(dp806
S'taskId'
p807
I402
sa(dp808
S'taskId'
p809
I403
sa(dp810
S'taskId'
p811
I404
sa(dp812
S'taskId'
p813
I405
sa(dp814
S'taskId'
p815
I406
sa(dp816
S'taskId'
p817
I407
sa(dp818
S'taskId'
p819
I408
sa(dp820
S'taskId'
p821
I409
sa(dp822
S'taskId'
p823
I410
sa(dp824
S'taskId'
p825
I411
sa(dp826
S'taskId'
p827
I412
sa(dp828
S'taskId'
p829
I413
sa(dp830
S'taskId'
p831
I414
sa(dp832
S'taskId'
p833
I415
sa(dp834
S'taskId'
p835
I416
sa(dp836
S'taskId'
p837
I417
sa(dp838
S'taskId'
p839
I418
sa(dp840
S'taskId'
p841
I419
sa(dp842
S'taskId'
p843
I420
sa(dp844
S'taskId'
p845
I421
sa(dp846
S'taskId'
p847
I422
sa(dp848
S'taskId'
p849
I423
sa(dp850
S'taskId'
p851
I424
sa(dp852
S'taskId'
p853
I425
sa(dp854
S'taskId'
p855
I426
sa(dp856
S'taskId'
p857
I427
sa(dp858
S'taskId'
p859
I428
sa(dp860
S'taskId'
p861
I429
sa(dp862
S'taskId'
p863
I430
sa(dp864
S'taskId'
p865
I431
sa(dp866
S'taskId'
p867
I432
sa(dp868
S'taskId'
p869
I433
sa(dp870
S'taskId'
p871
I434
sa(dp872
S'taskId'
p873
I435
sa(dp874
S'taskId'
p875
I436
sa(dp876
S'taskId'
p877
I437
sa(dp878
S'taskId'
p879
I438
sa(dp880
S'taskId'
p881
I439
sa(dp882
S'taskId'
p883
I440
sa(dp884
S'taskId'
p885
I441
sa(dp886
S'taskId'
p887
I442
sa(dp888
S'taskId'
p889
I443
sa(dp890
S'taskId'
p891
I444
sa(dp892
S'taskId'
p893
I445
sa(dp894
S'taskId'
p895
I446
sa(dp896
S'taskId'
p897
I447
sa(dp898
S'taskId'
p899
I448
sa(dp900
S'taskId'
p901
I449
sa(dp902
S'taskId'
p903
I450
sa(dp904
S'taskId'
p905
I451
sa(dp906
S'taskId'
p907
I452
sa(dp908
S'taskId'
p909
I453
sa(dp910
S'taskId'
p911
I454
sa(dp912
S'taskId'
p913
I455
sa(dp914
S'taskId'
p915
I456
sa(dp916
S'taskId'
p917
I457
sa(dp918
S'taskId'
p919
I458
sa(dp920
S'taskId'
p921
I459
sa(dp922
S'taskId'
p923
I460
sa(dp924
S'taskId'
p925
I461
sa(dp926
S'taskId'
p927
I462
sa(dp928
S'taskId'
p929
I463
sa(dp930
S'taskId'
p931
I464
sa(dp932
S'taskId'
p933
I465
sa(dp934
S'taskId'
p935
I466
sa(dp936
S'taskId'
p937
I467
sa(dp938
S'taskId'
p939
I468
sa(dp940
S'taskId'
p941
I469
sa(dp942
S'taskId'
p943
I470
sa(dp944
S'taskId'
p945
I471
sa(dp946
S'taskId'
p947
I472
sa(dp948
S'taskId'
p949
I473
sa(dp950
S'taskId'
p951
I474
sa(dp952
S'taskId'
p953
I475
sa(dp954
S'taskId'
p955
I476
sa(dp956
S'taskId'
p957
I477
sa(dp958
S'taskId'
p959
I478
sa(dp960
S'taskId'
p961
I479
sa(dp962
S'taskId'
p963
I480
sa(dp964
S'taskId'
p965
I481
sa(dp966
S'taskId'
p967
I482
sa(dp968
S'taskId'
p969
I483
sa(dp970
S'taskId'
p971
I484
sa(dp972
S'taskId'
p973
I485
sa(dp974
S'taskId'
p975
I486
sa(dp976
S'taskId'
p977
I487
sa(dp978
S'taskId'
p979
I488
sa(dp980
S'taskId'
p981
I489
sa(dp982
S'taskId'
p983
I490
sa(dp984
S'taskId'
p985
I491
sa(dp986
S'taskId'
p987
I492
sa(dp988
S'taskId'
p989
I493
sa(dp990
S'taskId'
p991
I494
sa(dp992
S'taskId'
p993
I495
sa(dp994
S'taskId'
p995
I496
sa(dp996
S'taskId'
p997
I497
sa(dp998
S'taskId'
p999
I498
sa(dp1000
S'taskId'
p1001
I499
sa(dp1002
S'taskId'
p1003
I500
sa(dp1004
S'taskId'
p1005
I501
sa(dp1006
S'taskId'
p1007
I502
sa(dp1008
S'taskId'
p1009
I503
sa(dp1010
S'taskId'
p1011
I504
sa(dp1012
S'taskId'
p1013
I505
sa(dp1014
S'taskId'
p1015
I506
sa(dp1016
S'taskId'
p1017
I507
sa(dp1018
S'taskId'
p1019
I508
sa(dp1020
S'taskId'
p1021
I509
sa(dp1022
S'taskId'
p1023
I510
sa(dp1024
S'taskId'
p1025
I511
sa(dp1026
S'taskId'
p1027
I512
sa(dp1028
S'taskId'
p1029
I513
sa(dp1030
S'taskId'
p1031
I514
sa(dp1032
S'taskId'
p1033
I515
sa(dp1034
S'taskId'
p1035
I516
sa(dp1036
S'taskId'
p1037
I517
sa(dp1038
S'taskId'
p1039
I518
sa(dp1040
S'taskId'
p1041
I519
sa(dp1042
S'taskId'
p1043
I520
sa(dp1044
S'taskId'
p1045
I521
sa(dp1046
S'taskId'
p1047
I522
sa(dp1048
S'taskId'
p1049
I523
sa(dp1050
S'taskId'
p1051
I524
sa(dp1052
S'taskId'
p1053
I525
sa(dp1054
S'taskId'
p1055
I526
sa(dp1056
S'taskId'
p1057
I527
sa(dp1058
S'taskId'
p1059
I528
sa(dp1060
S'taskId'
p1061
I529
sa(dp1062
S'taskId'
p1063
I530
sa(dp1064
S'taskId'
p1065
I531
sa(dp1066
S'taskId'
p1067
I532
sa(dp1068
S'taskId'
p1069
I533
sa(dp1070
S'taskId'
p1071
I534
sa(dp1072
S'taskId'
p1073
I535
sa(dp1074
S'taskId'
p1075
I536
sa(dp1076
S'taskId'
p1077
I537
sa(dp1078
S'taskId'
p1079
I538
sa(dp1080
S'taskId'
p1081
I539
sa(dp1082
S'taskId'
p1083
I540
sa(dp1084
S'taskId'
p1085
I541
sa(dp1086
S'taskId'
p1087
I542
sa(dp1088
S'taskId'
p1089
I543
sa(dp1090
S'taskId'
p1091
I544
sa(dp1092
S'taskId'
p1093
I545
sa(dp1094
S'taskId'
p1095
I546
sa(dp1096
S'taskId'
p1097
I547
sa(dp1098
S'taskId'
p1099
I548
sa(dp1100
S'taskId'
p1101
I549
sa(dp1102
S'taskId'
p1103
I550
sa(dp1104
S'taskId'
p1105
I551
sa(dp1106
S'taskId'
p1107
I552
sa(dp1108
S'taskId'
p1109
I553
sa(dp1110
S'taskId'
p1111
I554
sa(dp1112
S'taskId'
p1113
I555
sa(dp1114
S'taskId'
p1115
I556
sa(dp1116
S'taskId'
p1117
I557
sa(dp1118
S'taskId'
p1119
I558
sa(dp1120
S'taskId'
p1121
I559
sa(dp1122
S'taskId'
p1123
I560
sa(dp1124
S'taskId'
p1125
I561
sa(dp1126
S'taskId'
p1127
I562
sa(dp1128
S'taskId'
p1129
I563
sa(dp1130
S'taskId'
p1131
I564
sa(dp1132
S'taskId'
p1133
I565
sa(dp1134
S'taskId'
p1135
I566
sa(dp1136
S'taskId'
p1137
I567
sa(dp1138
S'taskId'
p1139
I568
sa(dp1140
S'taskId'
p1141
I569
sa(dp1142
S'taskId'
p1143
I570
sa(dp1144
S'taskId'
p1145
I571
sa(dp1146
S'taskId'
p1147
I572
sa(dp1148
S'taskId'
p1149
I573
sa(dp1150
S'taskId'
p1151
I574
sa(dp1152
S'taskId'
p1153
I575
sa(dp1154
S'taskId'
p1155
I576
sa(dp1156
S'taskId'
p1157
I577
sa(dp1158
S'taskId'
p1159
I578
sa(dp1160
S'taskId'
p1161
I579
sa(dp1162
S'taskId'
p1163
I580
sa(dp1164
S'taskId'
p1165
I581
sa(dp1166
S'taskId'
p1167
I582
sa(dp1168
S'taskId'
p1169
I583
sa(dp1170
S'taskId'
p1171
I584
sa(dp1172
S'taskId'
p1173
I585
sa(dp1174
S'taskId'
p1175
I586
sa(dp1176
S'taskId'
p1177
I587
sa(dp1178
S'taskId'
p1179
I588
sa(dp1180
S'taskId'
p1181
I589
sa(dp1182
S'taskId'
p1183
I590
sa(dp1184
S'taskId'
p1185
I591
sa(dp1186
S'taskId'
p1187
I592
sa(dp1188
S'taskId'
p1189
I593
sa(dp1190
S'taskId'
p1191
I594
sa(dp1192
S'taskId'
p1193
I595
sa(dp1194
S'taskId'
p1195
I596
sa(dp1196
S'taskId'
p1197
I597
sa(dp1198
S'taskId'
p1199
I598
sa(dp1200
S'taskId'
p1201
I599
sa(dp1202
S'taskId'
p1203
I600
sa(dp1204
S'taskId'
p1205
I601
sa(dp1206
S'taskId'
p1207
I602
sa(dp1208
S'taskId'
p1209
I603
sa(dp1210
S'taskId'
p1211
I604
sa(dp1212
S'taskId'
p1213
I605
sa(dp1214
S'taskId'
p1215
I606
sa(dp1216
S'taskId'
p1217
I607
sa(dp1218
S'taskId'
p1219
I608
sa(dp1220
S'taskId'
p1221
I609
sa(dp1222
S'taskId'
p1223
I610
sa(dp1224
S'taskId'
p1225
I611
sa(dp1226
S'taskId'
p1227
I612
sa(dp1228
S'taskId'
p1229
I613
sa(dp1230
S'taskId'
p1231
I614
sa(dp1232
S'taskId'
p1233
I615
sa(dp1234
S'taskId'
p1235
I616
sa(dp1236
S'taskId'
p1237
I617
sa(dp1238
S'taskId'
p1239
I618
sa(dp1240
S'taskId'
p1241
I619
sa(dp1242
S'taskId'
p1243
I620
sa(dp1244
S'taskId'
p1245
I621
sa(dp1246
S'taskId'
p1247
I622
sa(dp1248
S'taskId'
p1249
I623
sa(dp1250
S'taskId'
p1251
I624
sa(dp1252
S'taskId'
p1253
I625
sa(dp1254
S'taskId'
p1255
I626
sa(dp1256
S'taskId'
p1257
I627
sa(dp1258
S'taskId'
p1259
I628
sa(dp1260
S'taskId'
p1261
I629
sa(dp1262
S'taskId'
p1263
I630
sa(dp1264
S'taskId'
p1265
I631
sa(dp1266
S'taskId'
p1267
I632
sa(dp1268
S'taskId'
p1269
I633
sa(dp1270
S'taskId'
p1271
I634
sa(dp1272
S'taskId'
p1273
I635
sa(dp1274
S'taskId'
p1275
I636
sa(dp1276
S'taskId'
p1277
I637
sa(dp1278
S'taskId'
p1279
I638
sa(dp1280
S'taskId'
p1281
I639
sa(dp1282
S'taskId'
p1283
I640
sa(dp1284
S'taskId'
p1285
I641
sa(dp1286
S'taskId'
p1287
I642
sa(dp1288
S'taskId'
p1289
I643
sa(dp1290
S'taskId'
p1291
I644
sa(dp1292
S'taskId'
p1293
I645
sa(dp1294
S'taskId'
p1295
I646
sa(dp1296
S'taskId'
p1297
I647
sa(dp1298
S'taskId'
p1299
I648
sa(dp1300
S'taskId'
p1301
I649
sa(dp1302
S'taskId'
p1303
I650
sa(dp1304
S'taskId'
p1305
I651
sa(dp1306
S'taskId'
p1307
I652
sa(dp1308
S'taskId'
p1309
I653
sa(dp1310
S'taskId'
p1311
I654
sa(dp1312
S'taskId'
p1313
I655
sa(dp1314
S'taskId'
p1315
I656
sa(dp1316
S'taskId'
p1317
I657
sa(dp1318
S'taskId'
p1319
I658
sa(dp1320
S'taskId'
p1321
I659
sa(dp1322
S'taskId'
p1323
I660
sa(dp1324
S'taskId'
p1325
I661
sa(dp1326
S'taskId'
p1327
I662
sa(dp1328
S'taskId'
p1329
I663
sa(dp1330
S'taskId'
p1331
I664
sa(dp1332
S'taskId'
p1333
I665
sa(dp1334
S'taskId'
p1335
I666
sa(dp1336
S'taskId'
p1337
I667
sa(dp1338
S'taskId'
p1339
I668
sa(dp1340
S'taskId'
p1341
I669
sa(dp1342
S'taskId'
p1343
I670
sa(dp1344
S'taskId'
p1345
I671
sa(dp1346
S'taskId'
p1347
I672
sa(dp1348
S'taskId'
p1349
I673
sa(dp1350
S'taskId'
p1351
I674
sa(dp1352
S'taskId'
p1353
I675
sa(dp1354
S'taskId'
p1355
I676
sa(dp1356
S'taskId'
p1357
I677
sa(dp1358
S'taskId'
p1359
I678
sa(dp1360
S'taskId'
p1361
I679
sa(dp1362
S'taskId'
p1363
I680
sa(dp1364
S'taskId'
p1365
I681
sa(dp1366
S'taskId'
p1367
I682
sa(dp1368
S'taskId'
p1369
I683
sa(dp1370
S'taskId'
p1371
I684
sa(dp1372
S'taskId'
p1373
I685
sa(dp1374
S'taskId'
p1375
I686
sa(dp1376
S'taskId'
p1377
I687
sa(dp1378
S'taskId'
p1379
I688
sa(dp1380
S'taskId'
p1381
I689
sa(dp1382
S'taskId'
p1383
I690
sa(dp1384
S'taskId'
p1385
I691
sa(dp1386
S'taskId'
p1387
I692
sa(dp1388
S'taskId'
p1389
I693
sa(dp1390
S'taskId'
p1391
I694
sa(dp1392
S'taskId'
p1393
I695
sa(dp1394
S'taskId'
p1395
I696
sa(dp1396
S'taskId'
p1397
I697
sa(dp1398
S'taskId'
p1399
I698
sa(dp1400
S'taskId'
p1401
I699
sa(dp1402
S'taskId'
p1403
I700
sa(dp1404
S'taskId'
p1405
I701
sa(dp1406
S'taskId'
p1407
I702
sa(dp1408
S'taskId'
p1409
I703
sa(dp1410
S'taskId'
p1411
I704
sa(dp1412
S'taskId'
p1413
I705
sa(dp1414
S'taskId'
p1415
I706
sa(dp1416
S'taskId'
p1417
I707
sa(dp1418
S'taskId'
p1419
I708
sa(dp1420
S'taskId'
p1421
I709
sa(dp1422
S'taskId'
p1423
I710
sa(dp1424
S'taskId'
p1425
I711
sa(dp1426
S'taskId'
p1427
I712
sa(dp1428
S'taskId'
p1429
I713
sa(dp1430
S'taskId'
p1431
I714
sa(dp1432
S'taskId'
p1433
I715
sa(dp1434
S'taskId'
p1435
I716
sa(dp1436
S'taskId'
p1437
I717
sa(dp1438
S'taskId'
p1439
I718
sa(dp1440
S'taskId'
p1441
I719
sa(dp1442
S'taskId'
p1443
I720
sa(dp1444
S'taskId'
p1445
I721
sa(dp1446
S'taskId'
p1447
I722
sa(dp1448
S'taskId'
p1449
I723
sa(dp1450
S'taskId'
p1451
I724
sa(dp1452
S'taskId'
p1453
I725
sa(dp1454
S'taskId'
p1455
I726
sa(dp1456
S'taskId'
p1457
I727
sa(dp1458
S'taskId'
p1459
I728
sa(dp1460
S'taskId'
p1461
I729
sa(dp1462
S'taskId'
p1463
I730
sa(dp1464
S'taskId'
p1465
I731
sa(dp1466
S'taskId'
p1467
I732
sa(dp1468
S'taskId'
p1469
I733
sa(dp1470
S'taskId'
p1471
I734
sa(dp1472
S'taskId'
p1473
I735
sa(dp1474
S'taskId'
p1475
I736
sa(dp1476
S'taskId'
p1477
I737
sa(dp1478
S'taskId'
p1479
I738
sa(dp1480
S'taskId'
p1481
I739
sa(dp1482
S'taskId'
p1483
I740
sa(dp1484
S'taskId'
p1485
I741
sa(dp1486
S'taskId'
p1487
I742
sa(dp1488
S'taskId'
p1489
I743
sa(dp1490
S'taskId'
p1491
I744
sa(dp1492
S'taskId'
p1493
I745
sa(dp1494
S'taskId'
p1495
I746
sa(dp1496
S'taskId'
p1497
I747
sa(dp1498
S'taskId'
p1499
I748
sa(dp1500
S'taskId'
p1501
I749
sa(dp1502
S'taskId'
p1503
I750
sa(dp1504
S'taskId'
p1505
I751
sa(dp1506
S'taskId'
p1507
I752
sa(dp1508
S'taskId'
p1509
I753
sa(dp1510
S'taskId'
p1511
I754
sa(dp1512
S'taskId'
p1513
I755
sa(dp1514
S'taskId'
p1515
I756
sa(dp1516
S'taskId'
p1517
I757
sa(dp1518
S'taskId'
p1519
I758
sa(dp1520
S'taskId'
p1521
I759
sa(dp1522
S'taskId'
p1523
I760
sa(dp1524
S'taskId'
p1525
I761
sa(dp1526
S'taskId'
p1527
I762
sa(dp1528
S'taskId'
p1529
I763
sa(dp1530
S'taskId'
p1531
I764
sa(dp1532
S'taskId'
p1533
I765
sa(dp1534
S'taskId'
p1535
I766
sa(dp1536
S'taskId'
p1537
I767
sa(dp1538
S'taskId'
p1539
I768
sa(dp1540
S'taskId'
p1541
I769
sa(dp1542
S'taskId'
p1543
I770
sa(dp1544
S'taskId'
p1545
I771
sa(dp1546
S'taskId'
p1547
I772
sa(dp1548
S'taskId'
p1549
I773
sa(dp1550
S'taskId'
p1551
I774
sa(dp1552
S'taskId'
p1553
I775
sa(dp1554
S'taskId'
p1555
I776
sa(dp1556
S'taskId'
p1557
I777
sa(dp1558
S'taskId'
p1559
I778
sa(dp1560
S'taskId'
p1561
I779
sa(dp1562
S'taskId'
p1563
I780
sa(dp1564
S'taskId'
p1565
I781
sa(dp1566
S'taskId'
p1567
I782
sa(dp1568
S'taskId'
p1569
I783
sa(dp1570
S'taskId'
p1571
I784
sa(dp1572
S'taskId'
p1573
I785
sa(dp1574
S'taskId'
p1575
I786
sa(dp1576
S'taskId'
p1577
I787
sa(dp1578
S'taskId'
p1579
I788
sa(dp1580
S'taskId'
p1581
I789
sa(dp1582
S'taskId'
p1583
I790
sa(dp1584
S'taskId'
p1585
I791
sa(dp1586
S'taskId'
p1587
I792
sa(dp1588
S'taskId'
p1589
I793
sa(dp1590
S'taskId'
p1591
I794
sa(dp1592
S'taskId'
p1593
I795
sa(dp1594
S'taskId'
p1595
I796
sa(dp1596
S'taskId'
p1597
I797
sa(dp1598
S'taskId'
p1599
I798
sa(dp1600
S'taskId'
p1601
I799
sa(dp1602
S'taskId'
p1603
I800
sa(dp1604
S'taskId'
p1605
I801
sa(dp1606
S'taskId'
p1607
I802
sa(dp1608
S'taskId'
p1609
I803
sa(dp1610
S'taskId'
p1611
I804
sa(dp1612
S'taskId'
p1613
I805
sa(dp1614
S'taskId'
p1615
I806
sa(dp1616
S'taskId'
p1617
I807
sa(dp1618
S'taskId'
p1619
I808
sa(dp1620
S'taskId'
p1621
I809
sa(dp1622
S'taskId'
p1623
I810
sa(dp1624
S'taskId'
p1625
I811
sa(dp1626
S'taskId'
p1627
I812
sa(dp1628
S'taskId'
p1629
I813
sa(dp1630
S'taskId'
p1631
I814
sa(dp1632
S'taskId'
p1633
I815
sa(dp1634
S'taskId'
p1635
I816
sa(dp1636
S'taskId'
p1637
I817
sa(dp1638
S'taskId'
p1639
I818
sa(dp1640
S'taskId'
p1641
I819
sa(dp1642
S'taskId'
p1643
I820
sa(dp1644
S'taskId'
p1645
I821
sa(dp1646
S'taskId'
p1647
I822
sa(dp1648
S'taskId'
p1649
I823
sa(dp1650
S'taskId'
p1651
I824
sa(dp1652
S'taskId'
p1653
I825
sa(dp1654
S'taskId'
p1655
I826
sa(dp1656
S'taskId'
p1657
I827
sa(dp1658
S'taskId'
p1659
I828
sa(dp1660
S'taskId'
p1661
I829
sa(dp1662
S'taskId'
p1663
I830
sa(dp1664
S'taskId'
p1665
I831
sa(dp1666
S'taskId'
p1667
I832
sa(dp1668
S'taskId'
p1669
I833
sa(dp1670
S'taskId'
p1671
I834
sa(dp1672
S'taskId'
p1673
I835
sa(dp1674
S'taskId'
p1675
I836
sa(dp1676
S'taskId'
p1677
I837
sa(dp1678
S'taskId'
p1679
I838
sa(dp1680
S'taskId'
p1681
I839
sa(dp1682
S'taskId'
p1683
I840
sa(dp1684
S'taskId'
p1685
I841
sa(dp1686
S'taskId'
p1687
I842
sa(dp1688
S'taskId'
p1689
I843
sa(dp1690
S'taskId'
p1691
I844
sa(dp1692
S'taskId'
p1693
I845
sa(dp1694
S'taskId'
p1695
I846
sa(dp1696
S'taskId'
p1697
I847
sa(dp1698
S'taskId'
p1699
I848
sa(dp1700
S'taskId'
p1701
I849
sa(dp1702
S'taskId'
p1703
I850
sa(dp1704
S'taskId'
p1705
I851
sa(dp1706
S'taskId'
p1707
I852
sa(dp1708
S'taskId'
p1709
I853
sa(dp1710
S'taskId'
p1711
I854
sa(dp1712
S'taskId'
p1713
I855
sa(dp1714
S'taskId'
p1715
I856
sa(dp1716
S'taskId'
p1717
I857
sa(dp1718
S'taskId'
p1719
I858
sa(dp1720
S'taskId'
p1721
I859
sa(dp1722
S'taskId'
p1723
I860
sa(dp1724
S'taskId'
p1725
I861
sa(dp1726
S'taskId'
p1727
I862
sa(dp1728
S'taskId'
p1729
I863
sa(dp1730
S'taskId'
p1731
I864
sa(dp1732
S'taskId'
p1733
I865
sa(dp1734
S'taskId'
p1735
I866
sa(dp1736
S'taskId'
p1737
I867
sa(dp1738
S'taskId'
p1739
I868
sa(dp1740
S'taskId'
p1741
I869
sa(dp1742
S'taskId'
p1743
I870
sa(dp1744
S'taskId'
p1745
I871
sa(dp1746
S'taskId'
p1747
I872
sa(dp1748
S'taskId'
p1749
I873
sa(dp1750
S'taskId'
p1751
I874
sa(dp1752
S'taskId'
p1753
I875
sa(dp1754
S'taskId'
p1755
I876
sa(dp1756
S'taskId'
p1757
I877
sa(dp1758
S'taskId'
p1759
I878
sa(dp1760
S'taskId'
p1761
I879
sa(dp1762
S'taskId'
p1763
I880
sa(dp1764
S'taskId'
p1765
I881
sa(dp1766
S'taskId'
p1767
I882
sa(dp1768
S'taskId'
p1769
I883
sa(dp1770
S'taskId'
p1771
I884
sa(dp1772
S'taskId'
p1773
I885
sa(dp1774
S'taskId'
p1775
I886
sa(dp1776
S'taskId'
p1777
I887
sa(dp1778
S'taskId'
p1779
I888
sa(dp1780
S'taskId'
p1781
I889
sa(dp1782
S'taskId'
p1783
I890
sa(dp1784
S'taskId'
p1785
I891
sa(dp1786
S'taskId'
p1787
I892
sa(dp1788
S'taskId'
p1789
I893
sa(dp1790
S'taskId'
p1791
I894
sa(dp1792
S'taskId'
p1793
I895
sa(dp1794
S'taskId'
p1795
I896
sa(dp1796
S'taskId'
p1797
I897
sa(dp1798
S'taskId'
p1799
I898
sa(dp1800
S'taskId'
p1801
I899
sa(dp1802
S'taskId'
p1803
I900
sa(dp1804
S'taskId'
p1805
I901
sa(dp1806
S'taskId'
p1807
I902
sa(dp1808
S'taskId'
p1809
I903
sa(dp1810
S'taskId'
p1811
I904
sa(dp1812
S'taskId'
p1813
I905
sa(dp1814
S'taskId'
p1815
I906
sa(dp1816
S'taskId'
p1817
I907
sa(dp1818
S'taskId'
p1819
I908
sa(dp1820
S'taskId'
p1821
I909
sa(dp1822
S'taskId'
p1823
I910
sa(dp1824
S'taskId'
p1825
I911
sa(dp1826
S'taskId'
p1827
I912
sa(dp1828
S'taskId'
p1829
I913
sa(dp1830
S'taskId'
p1831
I914
sa(dp1832
S'taskId'
p1833
I915
sa(dp1834
S'taskId'
p1835
I916
sa(dp1836
S'taskId'
p1837
I917
sa(dp1838
S'taskId'
p1839
I918
sa(dp1840
S'taskId'
p1841
I919
sa(dp1842
S'taskId'
p1843
I920
sa(dp1844
S'taskId'
p1845
I921
sa(dp1846
S'taskId'
p1847
I922
sa(dp1848
S'taskId'
p1849
I923
sa(dp1850
S'taskId'
p1851
I924
sa(dp1852
S'taskId'
p1853
I925
sa(dp1854
S'taskId'
p1855
I926
sa(dp1856
S'taskId'
p1857
I927
sa(dp1858
S'taskId'
p1859
I928
sa(dp1860
S'taskId'
p1861
I929
sa(dp1862
S'taskId'
p1863
I930
sa(dp1864
S'taskId'
p1865
I931
sa(dp1866
S'taskId'
p1867
I932
sa(dp1868
S'taskId'
p1869
I933
sa(dp1870
S'taskId'
p1871
I934
sa(dp1872
S'taskId'
p1873
I935
sa(dp1874
S'taskId'
p1875
I936
sa(dp1876
S'taskId'
p1877
I937
sa(dp1878
S'taskId'
p1879
I938
sa(dp1880
S'taskId'
p1881
I939
sa(dp1882
S'taskId'
p1883
I940
sa(dp1884
S'taskId'
p1885
I941
sa(dp1886
S'taskId'
p1887
I942
sa(dp1888
S'taskId'
p1889
I943
sa(dp1890
S'taskId'
p1891
I944
sa(dp1892
S'taskId'
p1893
I945
sa(dp1894
S'taskId'
p1895
I946
sa(dp1896
S'taskId'
p1897
I947
sa(dp1898
S'taskId'
p1899
I948
sa(dp1900
S'taskId'
p1901
I949
sa(dp1902
S'taskId'
p1903
I950
sa(dp1904
S'taskId'
p1905
I951
sa(dp1906
S'taskId'
p1907
I952
sa(dp1908
S'taskId'
p1909
I953
sa(dp1910
S'taskId'
p1911
I954
sa(dp1912
S'taskId'
p1913
I955
sa(dp1914
S'taskId'
p1915
I956
sa(dp1916
S'taskId'
p1917
I957
sa(dp1918
S'taskId'
p1919
I958
sa(dp1920
S'taskId'
p1921
I959
sa(dp1922
S'taskId'
p1923
I960
sa(dp1924
S'taskId'
p1925
I961
sa(dp1926
S'taskId'
p1927
I962
sa(dp1928
S'taskId'
p1929
I963
sa(dp1930
S'taskId'
p1931
I964
sa(dp1932
S'taskId'
p1933
I965
sa(dp1934
S'taskId'
p1935
I966
sa(dp1936
S'taskId'
p1937
I967
sa(dp1938
S'taskId'
p1939
I968
sa(dp1940
S'taskId'
p1941
I969
sa(dp1942
S'taskId'
p1943
I970
sa(dp1944
S'taskId'
p1945
I971
sa(dp1946
S'taskId'
p1947
I972
sa(dp1948
S'taskId'
p1949
I973
sa(dp1950
S'taskId'
p1951
I974
sa(dp1952
S'taskId'
p1953
I975
sa(dp1954
S'taskId'
p1955
I976
sa(dp1956
S'taskId'
p1957
I977
sa(dp1958
S'taskId'
p1959
I978
sa(dp1960
S'taskId'
p1961
I979
sa(dp1962
S'taskId'
p1963
I980
sa(dp1964
S'taskId'
p1965
I981
sa(dp1966
S'taskId'
p1967
I982
sa(dp1968
S'taskId'
p1969
I983
sa(dp1970
S'taskId'
p1971
I984
sa(dp1972
S'taskId'
p1973
I985
sa(dp1974
S'taskId'
p1975
I986
sa(dp1976
S'taskId'
p1977
I987
sa(dp1978
S'taskId'
p1979
I988
sa(dp1980
S'taskId'
p1981
I989
sa(dp1982
S'taskId'
p1983
I990
sa(dp1984
S'taskId'
p1985
I991
sa(dp1986
S'taskId'
p1987
I992
sa(dp1988
S'taskId'
p1989
I993
sa(dp1990
S'taskId'
p1991
I994
sa(dp1992
S'taskId'
p1993
I995
sa(dp1994
S'taskId'
p1995
I996
sa(dp1996
S'taskId'
p1997
I997
sa(dp1998
S'taskId'
p1999
I998
sa(dp2000
S'taskId'
p2001
I999
sa.