(lp1
(F1487976935.4177041
F1487976976.8868761
tp2
a(F1487976935.3995559
F1487976994.47493
tp3
a(F1487976935.3962779
F1487976997.9129281
tp4
a(F1487976935.4593959
F1487976991.895273
tp5
a(F1487976935.466681
F1487976982.658767
tp6
a(F1487976935.6071129
F1487976983.3185279
tp7
a(F1487976935.403414
F1487976981.217304
tp8
a(F1487976935.5030329
F1487976991.2976241
tp9
a(F1487976935.604367
F1487976977.9911871
tp10
a(F1487976935.4763529
F1487976989.809412
tp11
a(F1487976935.405278
F1487976981.1413569
tp12
a(F1487976935.5891299
F1487977005.9823501
tp13
a(F1487976935.4393139
F1487976976.3429821
tp14
a(F1487976935.460408
F1487976977.0912571
tp15
a(F1487976935.537111
F1487976987.038871
tp16
a(F1487976936.041702
F1487976984.268877
tp17
a(F1487976935.7990839
F1487976999.4080689
tp18
a(F1487976935.4653561
F1487976989.0682001
tp19
a(F1487976935.3777111
F1487976980.4949241
tp20
a(F1487976935.540941
F1487976990.0124559
tp21
a(F1487976935.5505221
F1487976974.554179
tp22
a(F1487976935.7487161
F1487976982.1134629
tp23
a(F1487976935.491096
F1487976984.2227719
tp24
a(F1487976935.5488169
F1487977000.5877171
tp25
a(F1487976935.4625189
F1487976982.230921
tp26
a(F1487976935.4256511
F1487976987.1250961
tp27
a(F1487976935.4327641
F1487976982.413043
tp28
a(F1487976936.340971
F1487977002.3439391
tp29
a(F1487976935.4776311
F1487976985.2847691
tp30
a(F1487976935.46257
F1487976979.3755231
tp31
a(F1487976935.6451011
F1487976988.245573
tp32
a(F1487976935.4166961
F1487976989.925338
tp33
a(F1487976935.4959371
F1487976989.0420129
tp34
a(F1487976935.5529709
F1487977020.8571939
tp35
a(F1487976935.49015
F1487977003.3510339
tp36
a(F1487976935.529803
F1487976991.187494
tp37
a(F1487976935.5061879
F1487977021.4879429
tp38
a(F1487976935.4811101
F1487976977.2099831
tp39
a(F1487976935.393729
F1487976984.319344
tp40
a(F1487976935.4864931
F1487976979.7607739
tp41
a(F1487976935.4154799
F1487976983.8766201
tp42
a(F1487976935.375967
F1487977031.2753489
tp43
a(F1487976935.3967619
F1487976973.148571
tp44
a(F1487976935.6918349
F1487976985.9157929
tp45
a(F1487976935.3816209
F1487976986.711247
tp46
a(F1487976935.5138719
F1487976977.2917111
tp47
a(F1487976935.4314749
F1487976990.4464729
tp48
a(F1487976935.409934
F1487977001.6179199
tp49
a(F1487976936.221967
F1487976978.742698
tp50
a(F1487976935.4813421
F1487976983.040453
tp51
a(F1487976935.4694791
F1487976976.2722621
tp52
a(F1487976935.450145
F1487976997.9987841
tp53
a(F1487976935.410614
F1487976978.962744
tp54
a(F1487976935.3671241
F1487976989.793458
tp55
a(F1487976936.018635
F1487977020.331743
tp56
a(F1487976935.423595
F1487976987.911839
tp57
a(F1487976935.619684
F1487976989.2001221
tp58
a(F1487976935.432704
F1487977006.845645
tp59
a(F1487976935.5232511
F1487976984.769697
tp60
a(F1487976935.563458
F1487976988.7490709
tp61
a(F1487976935.5478339
F1487977020.242862
tp62
a(F1487976935.5367839
F1487976977.2495761
tp63
a(F1487976935.5098071
F1487976985.75686
tp64
a(F1487976935.5904851
F1487976985.8983591
tp65
a(F1487976935.6241679
F1487976976.89169
tp66
a(F1487976935.6641359
F1487976995.5824001
tp67
a(F1487976935.721746
F1487976985.6532569
tp68
a(F1487976935.8988471
F1487976973.6824639
tp69
a(F1487976935.9329529
F1487976973.90941
tp70
a(F1487976935.6160309
F1487976982.5201161
tp71
a(F1487976935.9480081
F1487977003.9162309
tp72
a(F1487976935.7162681
F1487976981.8244181
tp73
a(F1487976935.7524149
F1487976988.826117
tp74
a(F1487976935.7355449
F1487976982.3074269
tp75
a(F1487976936.0936589
F1487976989.356127
tp76
a(F1487976935.913161
F1487976995.393172
tp77
a(F1487976935.862644
F1487976983.1476071
tp78
a(F1487976935.9154539
F1487976985.41538
tp79
a(F1487976935.9234519
F1487976986.4493949
tp80
a(F1487976935.7413671
F1487976980.4644971
tp81
a(F1487976935.9553189
F1487976976.306963
tp82
a(F1487976935.9155819
F1487976973.991046
tp83
a(F1487976935.9499669
F1487976978.564193
tp84
a(F1487976936.0770321
F1487977003.6121249
tp85
a(F1487976935.8694699
F1487976982.7572269
tp86
a(F1487976935.9101939
F1487976988.867099
tp87
a(F1487976935.929328
F1487976986.831584
tp88
a(F1487976936.0665131
F1487976981.522712
tp89
a(F1487976936.205147
F1487976996.6633561
tp90
a(F1487976935.788377
F1487976983.0706241
tp91
a(F1487976935.8721571
F1487976995.984122
tp92
a(F1487976936.091774
F1487976982.400142
tp93
a(F1487976935.919132
F1487976976.4041829
tp94
a(F1487976937.3749101
F1487976974.7485969
tp95
a(F1487976936.6118159
F1487976997.0740719
tp96
a(F1487976935.9774849
F1487976986.665148
tp97
a(F1487976935.9137781
F1487976977.7723761
tp98
a(F1487976935.989656
F1487976997.8679991
tp99
a(F1487976936.2570679
F1487976975.4851451
tp100
a(F1487976935.900387
F1487976982.4087391
tp101
a(F1487976936.027287
F1487976976.6829309
tp102
a(F1487976935.9286511
F1487976995.0898781
tp103
a(F1487976935.9372351
F1487976993.1366379
tp104
a(F1487976935.943145
F1487977034.8642709
tp105
a(F1487976935.942992
F1487976984.6929641
tp106
a(F1487976935.928931
F1487976980.656687
tp107
a(F1487976936.0174389
F1487976976.2754681
tp108
a(F1487976936.0411201
F1487976988.0701871
tp109
a(F1487976943.6548431
F1487977022.8109851
tp110
a(F1487976935.978955
F1487976981.6012371
tp111
a(F1487976935.918967
F1487976979.2817531
tp112
a(F1487976935.9116659
F1487976987.051537
tp113
a(F1487976936.001909
F1487977021.0214159
tp114
a(F1487976935.937808
F1487976980.9935441
tp115
a(F1487976936.112812
F1487977021.1292341
tp116
a(F1487976936.002008
F1487977025.124758
tp117
a(F1487976935.9016869
F1487976980.4411049
tp118
a(F1487976935.9228561
F1487977021.020205
tp119
a(F1487976935.9187541
F1487976990.822674
tp120
a(F1487976937.057519
F1487977024.112463
tp121
a(F1487976935.8940561
F1487976976.5536389
tp122
a(F1487976935.909385
F1487977001.016299
tp123
a(F1487976935.9124949
F1487976977.745944
tp124
a(F1487976944.298399
F1487977020.912889
tp125
a(F1487976936.1126361
F1487976977.052933
tp126
a(F1487976935.905874
F1487977020.4624
tp127
a(F1487976936.018738
F1487976979.694664
tp128
a(F1487976937.1174281
F1487976991.276165
tp129
a(F1487976935.948231
F1487976975.860076
tp130
a(F1487976936.2026341
F1487976983.7054341
tp131
a(F1487976935.9237061
F1487977027.0403349
tp132
a(F1487976936.0358131
F1487976988.2485731
tp133
a(F1487976936.0577731
F1487977006.490103
tp134
a(F1487976936.166328
F1487976982.2260599
tp135
a(F1487976936.296917
F1487976990.1275561
tp136
a(F1487976936.1680601
F1487976982.071641
tp137
a(F1487976936.1546669
F1487976981.8904319
tp138
a(F1487976936.216974
F1487976977.0669079
tp139
a(F1487976936.2682891
F1487976990.0140481
tp140
a(F1487976936.1473379
F1487976983.7972889
tp141
a(F1487976936.162056
F1487976982.5311821
tp142
a(F1487976936.1159439
F1487977004.7843299
tp143
a(F1487976936.137536
F1487976996.637953
tp144
a(F1487976936.4493661
F1487976979.355377
tp145
a(F1487976936.1278231
F1487976977.5510099
tp146
a(F1487976936.3632009
F1487976989.474879
tp147
a(F1487976936.20415
F1487976978.307791
tp148
a(F1487976936.3147061
F1487976986.25494
tp149
a(F1487976936.5106709
F1487976980.410723
tp150
a(F1487976936.216157
F1487976984.7065849
tp151
a(F1487976936.419683
F1487976996.627043
tp152
a(F1487976936.3419001
F1487976990.133985
tp153
a(F1487976936.5528829
F1487976980.313098
tp154
a(F1487976936.2073679
F1487976979.504097
tp155
a(F1487976936.266773
F1487977022.5679469
tp156
a(F1487976936.2137189
F1487976985.974726
tp157
a(F1487976936.2304621
F1487977020.2845759
tp158
a(F1487976936.2670751
F1487977020.1418951
tp159
a(F1487976936.2387819
F1487976995.0965531
tp160
a(F1487976936.2677929
F1487976988.689795
tp161
a(F1487976936.2503891
F1487976988.074317
tp162
a(F1487976936.187104
F1487976981.1310911
tp163
a(F1487976936.56076
F1487976983.9835401
tp164
a(F1487976936.302995
F1487976983.74506
tp165
a(F1487976936.346658
F1487976978.097018
tp166
a(F1487976936.4947939
F1487977019.804563
tp167
a(F1487976936.324641
F1487976981.5354509
tp168
a(F1487976936.31475
F1487977019.2435751
tp169
a(F1487976936.262707
F1487976990.3066051
tp170
a(F1487976936.432672
F1487976996.001394
tp171
a(F1487976936.2404189
F1487976982.3301449
tp172
a(F1487976937.454267
F1487976997.3478961
tp173
a(F1487976936.432065
F1487976993.3812959
tp174
a(F1487976936.4656079
F1487977020.527092
tp175
a(F1487976936.4993329
F1487977026.1666119
tp176
a(F1487976936.257401
F1487976984.1492341
tp177
a(F1487976936.3596351
F1487977020.275228
tp178
a(F1487976936.5733559
F1487976996.6196239
tp179
a(F1487976936.4959011
F1487977006.5056331
tp180
a(F1487976936.280664
F1487976983.6216619
tp181
a(F1487976936.3172269
F1487976984.5864761
tp182
a(F1487976936.254988
F1487976984.226254
tp183
a(F1487976936.489861
F1487976995.701304
tp184
a(F1487976936.3083639
F1487977022.035464
tp185
a(F1487976936.3551681
F1487976988.389245
tp186
a(F1487976936.2888319
F1487976989.1464241
tp187
a(F1487976936.4059579
F1487976978.8965969
tp188
a(F1487976937.046232
F1487976982.7228889
tp189
a(F1487976936.46878
F1487976979.774231
tp190
a(F1487976936.3280511
F1487977019.3418751
tp191
a(F1487976936.576654
F1487976983.8609829
tp192
a(F1487976937.1704619
F1487976982.6810529
tp193
a(F1487976936.2720239
F1487976987.741235
tp194
a(F1487976936.905709
F1487976979.6238849
tp195
a(F1487976936.7515609
F1487976991.729409
tp196
a(F1487976936.9771521
F1487976983.463104
tp197
a(F1487976937.5758131
F1487976983.9667201
tp198
a(F1487976936.536582
F1487977002.45576
tp199
a(F1487976936.669965
F1487976993.191092
tp200
a(F1487976936.7381151
F1487976984.378813
tp201
a(F1487976936.7074411
F1487976980.898129
tp202
a(F1487976936.601733
F1487976989.2039349
tp203
a(F1487976936.659317
F1487976987.1238749
tp204
a(F1487976936.6557989
F1487977020.1520171
tp205
a(F1487976936.7398629
F1487976983.7341809
tp206
a(F1487976936.614603
F1487976975.572262
tp207
a(F1487976936.963392
F1487976981.460104
tp208
a(F1487976936.641669
F1487977007.2055271
tp209
a(F1487976936.8011341
F1487976998.97349
tp210
a(F1487976936.8034589
F1487977003.7242091
tp211
a(F1487976937.76807
F1487976981.3179121
tp212
a(F1487976937.4790521
F1487977000.0288651
tp213
a(F1487976936.8439651
F1487976993.403028
tp214
a(F1487976938.0838909
F1487977000.0675299
tp215
a(F1487976936.6069019
F1487977021.396714
tp216
a(F1487976936.9584301
F1487976975.692498
tp217
a(F1487976936.8008361
F1487976982.8746531
tp218
a(F1487976936.8509991
F1487976995.9004731
tp219
a(F1487976936.8678191
F1487976977.038321
tp220
a(F1487976936.628463
F1487976994.021399
tp221
a(F1487976936.62483
F1487976992.6982219
tp222
a(F1487976936.650481
F1487976977.1366529
tp223
a(F1487976936.7679031
F1487976975.892853
tp224
a(F1487976936.6401069
F1487977004.046973
tp225
a(F1487976936.6495171
F1487976992.846339
tp226
a(F1487976936.7210951
F1487976983.937043
tp227
a(F1487976936.6545789
F1487976983.4973071
tp228
a(F1487976936.768579
F1487977000.7069659
tp229
a(F1487976936.637615
F1487976972.7824011
tp230
a(F1487976944.1034441
F1487977019.8893099
tp231
a(F1487976936.7396419
F1487976975.700695
tp232
a(F1487976942.724534
F1487976998.276304
tp233
a(F1487976936.878545
F1487976988.3790209
tp234
a(F1487976936.9684801
F1487976989.9595039
tp235
a(F1487976936.771883
F1487976982.056412
tp236
a(F1487976936.933439
F1487976980.5644591
tp237
a(F1487976943.3017299
F1487977001.107414
tp238
a(F1487976936.738544
F1487977007.580328
tp239
a(F1487976936.7120931
F1487976990.0193951
tp240
a(F1487976936.8581779
F1487976999.568908
tp241
a(F1487976936.7524331
F1487976976.6403279
tp242
a(F1487976942.252717
F1487977004.120126
tp243
a(F1487976943.7982709
F1487977000.912029
tp244
a(F1487976936.7269361
F1487976988.845968
tp245
a(F1487976936.7601759
F1487976994.401751
tp246
a(F1487976936.6866851
F1487976976.4365721
tp247
a(F1487976944.2692981
F1487977021.827898
tp248
a(F1487976944.7628009
F1487977025.485285
tp249
a(F1487976937.592525
F1487976997.2019711
tp250
a(F1487976936.694005
F1487976993.9234641
tp251
a(F1487976936.9329369
F1487977020.2085969
tp252
a(F1487976943.2921779
F1487976992.439981
tp253
a(F1487976943.1630521
F1487977002.6472709
tp254
a(F1487976936.8090301
F1487977000.287003
tp255
a(F1487976944.0824299
F1487976994.7753601
tp256
a(F1487976943.1261821
F1487976994.5929811
tp257
a(F1487976937.0369179
F1487976976.1160171
tp258
a(F1487976936.9323249
F1487976984.0215549
tp259
a(F1487976943.966115
F1487977020.5405841
tp260
a(F1487976943.0509009
F1487976987.5134461
tp261
a(F1487976936.830482
F1487976979.8051419
tp262
a(F1487976937.143939
F1487977021.923918
tp263
a(F1487976944.2686269
F1487976986.012166
tp264
a(F1487976936.963151
F1487977028.2720239
tp265
a(F1487976937.100934
F1487976984.2611511
tp266
a(F1487976936.9437239
F1487976986.0899079
tp267
a(F1487976937.2300129
F1487977019.6638989
tp268
a(F1487976944.397387
F1487976988.505579
tp269
a(F1487976936.953851
F1487977019.6933329
tp270
a(F1487976937.181597
F1487976982.8445981
tp271
a(F1487976937.023118
F1487976975.7563021
tp272
a(F1487976937.09516
F1487976990.8983591
tp273
a(F1487976937.714035
F1487976997.6817651
tp274
a(F1487976943.9578941
F1487976992.546458
tp275
a(F1487976944.3081491
F1487977006.010076
tp276
a(F1487976937.0363181
F1487977000.518266
tp277
a(F1487976943.25542
F1487977019.1411631
tp278
a(F1487976937.2057691
F1487976995.8767109
tp279
a(F1487976937.0123341
F1487977021.5181899
tp280
a(F1487976937.209197
F1487976978.02175
tp281
a(F1487976937.0208859
F1487976976.970221
tp282
a(F1487976937.0810959
F1487977019.8747749
tp283
a(F1487976943.4058039
F1487976994.5154021
tp284
a(F1487976937.044451
F1487976982.1607289
tp285
a(F1487976943.7442541
F1487976993.0340371
tp286
a(F1487976943.595113
F1487976987.240365
tp287
a(F1487976937.1406951
F1487976986.0429969
tp288
a(F1487976937.161032
F1487976984.5806539
tp289
a(F1487976937.144417
F1487976975.57898
tp290
a(F1487976937.1898789
F1487976994.625334
tp291
a(F1487976937.0557411
F1487976985.2601349
tp292
a(F1487976943.733216
F1487977006.5264111
tp293
a(F1487976937.233489
F1487976976.181608
tp294
a(F1487976937.408922
F1487976979.7584629
tp295
a(F1487976937.298161
F1487976989.24897
tp296
a(F1487976937.167232
F1487976992.9212201
tp297
a(F1487976937.0529749
F1487976993.951849
tp298
a(F1487976937.0654931
F1487976983.724508
tp299
a(F1487976937.6290059
F1487976978.7646041
tp300
a(F1487976937.080137
F1487977020.256875
tp301
a(F1487976937.5569961
F1487976975.9726541
tp302
a(F1487976937.195559
F1487976986.809716
tp303
a(F1487976937.365061
F1487977020.1152611
tp304
a(F1487976943.7822859
F1487977020.8933179
tp305
a(F1487976937.1226931
F1487976985.753619
tp306
a(F1487976937.1588221
F1487976996.82811
tp307
a(F1487976937.3629291
F1487976996.846225
tp308
a(F1487976937.1650491
F1487977003.0915489
tp309
a(F1487976937.4510851
F1487976986.13182
tp310
a(F1487976937.2494559
F1487976978.0025499
tp311
a(F1487976937.1439121
F1487977020.9520681
tp312
a(F1487976938.177232
F1487977022.774992
tp313
a(F1487976937.2479789
F1487976983.472568
tp314
a(F1487976942.990613
F1487976976.3599491
tp315
a(F1487976937.1650009
F1487976973.8129561
tp316
a(F1487976943.719907
F1487976985.959651
tp317
a(F1487976937.86658
F1487976990.2573221
tp318
a(F1487976937.241605
F1487976982.5690911
tp319
a(F1487976937.2324419
F1487977032.8875599
tp320
a(F1487976944.6208761
F1487977021.696713
tp321
a(F1487976937.5406489
F1487976988.3189671
tp322
a(F1487976937.281266
F1487976975.8957341
tp323
a(F1487976943.5592811
F1487976985.043694
tp324
a(F1487976938.5495889
F1487977020.74702
tp325
a(F1487976937.2932351
F1487976982.022337
tp326
a(F1487976937.486347
F1487976992.0743461
tp327
a(F1487976937.3010609
F1487977021.2416921
tp328
a(F1487976947.2939019
F1487977022.049643
tp329
a(F1487976937.5958719
F1487977026.7419701
tp330
a(F1487976943.7171149
F1487976997.690587
tp331
a(F1487976937.7519851
F1487977004.896383
tp332
a(F1487976937.6985199
F1487976993.2085819
tp333
a(F1487976937.589365
F1487977020.7972629
tp334
a(F1487976943.241323
F1487977019.127718
tp335
a(F1487976937.633261
F1487977002.6761949
tp336
a(F1487976943.397768
F1487976989.075397
tp337
a(F1487976937.6203949
F1487976981.3249111
tp338
a(F1487976943.6687939
F1487976988.265132
tp339
a(F1487976937.612289
F1487976981.899801
tp340
a(F1487976937.7938869
F1487976997.0742381
tp341
a(F1487976943.607959
F1487977017.0219679
tp342
a(F1487976944.4526579
F1487976985.6342211
tp343
a(F1487976943.789875
F1487976984.688401
tp344
a(F1487976937.682693
F1487977021.0044279
tp345
a(F1487976937.59937
F1487976981.120342
tp346
a(F1487976943.378345
F1487977001.412204
tp347
a(F1487976937.8834629
F1487976982.4029319
tp348
a(F1487976937.6038489
F1487976979.0801301
tp349
a(F1487976937.5886791
F1487976993.3928249
tp350
a(F1487976943.828975
F1487976994.4011631
tp351
a(F1487976937.7487841
F1487977020.5190029
tp352
a(F1487976937.7819569
F1487976983.699086
tp353
a(F1487976937.697407
F1487976978.0772779
tp354
a(F1487976937.743
F1487977000.2148249
tp355
a(F1487976937.98401
F1487976985.4210939
tp356
a(F1487976937.679631
F1487976984.4538741
tp357
a(F1487976944.0118639
F1487977020.4839611
tp358
a(F1487976937.6920879
F1487976987.6608751
tp359
a(F1487976937.8425429
F1487976985.052629
tp360
a(F1487976937.8170609
F1487976998.00143
tp361
a(F1487976937.8758681
F1487977003.163022
tp362
a(F1487976937.679054
F1487976991.0661399
tp363
a(F1487976937.6827209
F1487976991.8623741
tp364
a(F1487976937.8872471
F1487976992.5933819
tp365
a(F1487976937.7035711
F1487976981.928396
tp366
a(F1487976938.269989
F1487976992.222981
tp367
a(F1487976937.727056
F1487977001.548218
tp368
a(F1487976937.9346199
F1487976979.3841469
tp369
a(F1487976942.9647341
F1487976987.712199
tp370
a(F1487976938.974683
F1487976978.0469949
tp371
a(F1487976944.4437809
F1487976998.3114829
tp372
a(F1487976937.906858
F1487976988.256608
tp373
a(F1487976943.74382
F1487976992.353178
tp374
a(F1487976944.0457139
F1487976984.7432311
tp375
a(F1487976944.2197199
F1487977023.9865711
tp376
a(F1487976937.9642389
F1487976999.0300651
tp377
a(F1487976944.209929
F1487977006.3459311
tp378
a(F1487976943.6754379
F1487976994.4966569
tp379
a(F1487976937.9185929
F1487976979.833822
tp380
a(F1487976943.970881
F1487977024.47614
tp381
a(F1487976937.8402331
F1487976996.720201
tp382
a(F1487976944.15712
F1487976991.4637351
tp383
a(F1487976944.268182
F1487977023.3674181
tp384
a(F1487976937.8550191
F1487977022.780004
tp385
a(F1487976944.3617339
F1487976999.874629
tp386
a(F1487976945.8333111
F1487977021.7138309
tp387
a(F1487976938.0124769
F1487976978.3105259
tp388
a(F1487976938.2859321
F1487976976.7271509
tp389
a(F1487976937.963423
F1487976976.0285079
tp390
a(F1487976944.631954
F1487976988.588315
tp391
a(F1487976938.093271
F1487977027.026233
tp392
a(F1487976937.772706
F1487976979.9888129
tp393
a(F1487976938.0624571
F1487976993.6368711
tp394
a(F1487976938.244396
F1487977021.741684
tp395
a(F1487976944.4437809
F1487977001.3913651
tp396
a(F1487976939.9188199
F1487977003.635325
tp397
a(F1487976938.1762979
F1487976981.9858971
tp398
a(F1487976944.3384089
F1487976989.2695701
tp399
a(F1487976938.2018349
F1487976993.649142
tp400
a(F1487976937.7997439
F1487976998.5493309
tp401
a(F1487976937.9602749
F1487976992.174556
tp402
a(F1487976938.065408
F1487977019.7416191
tp403
a(F1487976944.8673279
F1487976994.226532
tp404
a(F1487976937.8990741
F1487976977.7642231
tp405
a(F1487976937.870142
F1487976985.738071
tp406
a(F1487976944.475631
F1487977019.7989509
tp407
a(F1487976944.628201
F1487977027.4987309
tp408
a(F1487976937.9783831
F1487976984.868269
tp409
a(F1487976938.031415
F1487976995.1360741
tp410
a(F1487976938.1250761
F1487977022.477634
tp411
a(F1487976944.733696
F1487977000.8177681
tp412
a(F1487976944.331157
F1487977006.6939781
tp413
a(F1487976938.123291
F1487976986.3982289
tp414
a(F1487976938.08618
F1487976978.86918
tp415
a(F1487976944.70242
F1487977022.658114
tp416
a(F1487976937.868886
F1487976985.7268319
tp417
a(F1487976938.0665901
F1487976998.172514
tp418
a(F1487976944.371244
F1487977019.339175
tp419
a(F1487976937.866729
F1487976983.9666851
tp420
a(F1487976938.1576691
F1487976990.0234001
tp421
a(F1487976938.2062509
F1487976981.2138331
tp422
a(F1487976944.528059
F1487977005.7495689
tp423
a(F1487976944.781522
F1487977002.2444689
tp424
a(F1487976937.95715
F1487976995.7670979
tp425
a(F1487976939.9088769
F1487976980.7105229
tp426
a(F1487976944.4638269
F1487976994.2550659
tp427
a(F1487976944.956202
F1487977036.199281
tp428
a(F1487976943.6020601
F1487977002.6129
tp429
a(F1487976945.1502111
F1487977019.9771149
tp430
a(F1487976945.0987861
F1487976998.0369689
tp431
a(F1487976944.425257
F1487977008.409852
tp432
a(F1487976938.154891
F1487977017.8498271
tp433
a(F1487976938.2585821
F1487977001.1734979
tp434
a(F1487976938.3105071
F1487977021.35902
tp435
a(F1487976944.4398069
F1487977007.0073531
tp436
a(F1487976943.401469
F1487976997.9982071
tp437
a(F1487976938.0883231
F1487976973.3721681
tp438
a(F1487976938.4662969
F1487976979.98821
tp439
a(F1487976944.58132
F1487976990.5768931
tp440
a(F1487976944.592428
F1487976997.986727
tp441
a(F1487976938.2030921
F1487976986.118155
tp442
a(F1487976944.722259
F1487977019.7845891
tp443
a(F1487976944.917506
F1487976981.7205729
tp444
a(F1487976944.8022239
F1487976990.391115
tp445
a(F1487976938.2320991
F1487976981.3699651
tp446
a(F1487976938.4095261
F1487976983.7903709
tp447
a(F1487976944.724401
F1487976986.7392459
tp448
a(F1487976944.885144
F1487977021.81881
tp449
a(F1487976938.1999171
F1487976987.3725059
tp450
a(F1487976938.306047
F1487976997.9167039
tp451
a(F1487976944.695349
F1487977022.7417099
tp452
a(F1487976944.7304699
F1487977021.9300001
tp453
a(F1487976938.2931809
F1487977021.2415481
tp454
a(F1487976938.359905
F1487977028.1372089
tp455
a(F1487976945.0168519
F1487976994.8797841
tp456
a(F1487976944.847321
F1487977003.299809
tp457
a(F1487976944.27473
F1487976992.731812
tp458
a(F1487976944.9762321
F1487977026.2907159
tp459
a(F1487976945.9079571
F1487977027.97205
tp460
a(F1487976944.753654
F1487976991.174119
tp461
a(F1487976938.606359
F1487976993.0438571
tp462
a(F1487976944.730552
F1487976990.4280391
tp463
a(F1487976944.493223
F1487976986.800621
tp464
a(F1487976944.3294981
F1487977022.1247711
tp465
a(F1487976944.754509
F1487977039.321449
tp466
a(F1487976944.6903319
F1487977001.032048
tp467
a(F1487976938.1873419
F1487977168.488699
tp468
a(F1487976945.3253009
F1487977021.601958
tp469
a(F1487976944.411731
F1487977025.542192
tp470
a(F1487976946.3984079
F1487977022.35817
tp471
a(F1487976945.170953
F1487977020.325052
tp472
a(F1487976945.629853
F1487976996.672555
tp473
a(F1487976945.3130391
F1487977020.5311351
tp474
a(F1487976944.870065
F1487976995.318686
tp475
a(F1487976938.4568081
F1487976980.261281
tp476
a(F1487976944.6547339
F1487976998.8363459
tp477
a(F1487976938.588541
F1487977018.6065371
tp478
a(F1487976944.7018361
F1487977033.633877
tp479
a(F1487976945.3654599
F1487977019.497184
tp480
a(F1487976944.9052801
F1487977020.0863039
tp481
a(F1487976945.0198801
F1487976991.6635499
tp482
a(F1487976944.2697661
F1487976995.7019689
tp483
a(F1487976944.8409171
F1487976997.0778999
tp484
a(F1487976944.8720579
F1487977003.6495531
tp485
a(F1487976944.557704
F1487977019.787715
tp486
a(F1487976944.29352
F1487976987.215605
tp487
a(F1487976944.987303
F1487976994.489748
tp488
a(F1487976944.8629749
F1487977017.938709
tp489
a(F1487976945.088285
F1487977022.7803471
tp490
a(F1487976944.266942
F1487976987.249115
tp491
a(F1487976944.151762
F1487977021.5405691
tp492
a(F1487976945.0088849
F1487977005.405134
tp493
a(F1487976944.822618
F1487977020.412478
tp494
a(F1487976945.1654689
F1487977021.6611669
tp495
a(F1487976938.5839951
F1487977019.722862
tp496
a(F1487976944.9752159
F1487976984.295851
tp497
a(F1487976944.7264919
F1487976994.2943239
tp498
a(F1487976938.893188
F1487976979.2265191
tp499
a(F1487976944.7113349
F1487977021.963872
tp500
a(F1487976945.2239649
F1487977002.9853361
tp501
a(F1487976944.9715731
F1487976987.5561881
tp502
a(F1487976944.557512
F1487976990.4833829
tp503
a(F1487976938.6065831
F1487976978.4827981
tp504
a(F1487976938.674042
F1487976986.3184979
tp505
a(F1487976945.1780901
F1487976986.379704
tp506
a(F1487976945.1600339
F1487977020.7232051
tp507
a(F1487976938.7536039
F1487976993.9019599
tp508
a(F1487976944.991832
F1487977024.7060289
tp509
a(F1487976945.2687359
F1487976981.6153989
tp510
a(F1487976945.1258011
F1487977022.025373
tp511
a(F1487976945.067663
F1487977024.5120831
tp512
a(F1487976945.505372
F1487976991.362236
tp513
a(F1487976945.0998349
F1487977025.4773979
tp514
a(F1487976944.7926819
F1487976993.36064
tp515
a(F1487976945.1519289
F1487977021.626199
tp516
a(F1487976945.7771039
F1487977021.7586141
tp517
a(F1487976938.729176
F1487976982.802294
tp518
a(F1487976945.2152481
F1487976996.841284
tp519
a(F1487976938.625921
F1487976987.658324
tp520
a(F1487976944.984664
F1487977000.2011349
tp521
a(F1487976945.0717831
F1487976985.6013751
tp522
a(F1487976945.2085099
F1487977020.7450161
tp523
a(F1487976945.4002819
F1487976998.0124869
tp524
a(F1487976945.549273
F1487977025.317435
tp525
a(F1487976938.881911
F1487976993.2737181
tp526
a(F1487976946.6569171
F1487976997.870496
tp527
a(F1487976943.1857519
F1487976982.6836109
tp528
a(F1487976945.617748
F1487976998.6583049
tp529
a(F1487976945.3361161
F1487977020.196665
tp530
a(F1487976945.344224
F1487977005.344732
tp531
a(F1487976945.2663209
F1487977021.9653521
tp532
a(F1487976956.7699809
F1487977018.718951
tp533
a(F1487976944.9016321
F1487977022.5947039
tp534
a(F1487976945.064868
F1487976988.1207571
tp535
a(F1487976946.666775
F1487976999.6636651
tp536
a(F1487976945.5420361
F1487976986.276664
tp537
a(F1487976946.2322581
F1487977000.3739271
tp538
a(F1487976945.168546
F1487976993.132288
tp539
a(F1487976945.1099379
F1487976993.582695
tp540
a(F1487976945.046869
F1487976989.0804601
tp541
a(F1487976944.920764
F1487976987.0104239
tp542
a(F1487976939.0735979
F1487976995.903589
tp543
a(F1487976945.508986
F1487977023.0807631
tp544
a(F1487976939.0631559
F1487977021.6831739
tp545
a(F1487976945.412452
F1487977020.5318501
tp546
a(F1487976945.2854619
F1487976996.075949
tp547
a(F1487976945.6709731
F1487977004.308228
tp548
a(F1487976945.171593
F1487976983.021452
tp549
a(F1487976945.4951241
F1487977004.7209511
tp550
a(F1487976945.1130459
F1487977021.0765541
tp551
a(F1487976946.6042359
F1487976986.107866
tp552
a(F1487976945.079124
F1487977008.2524099
tp553
a(F1487976939.13746
F1487977028.547188
tp554
a(F1487976944.852757
F1487977021.2293501
tp555
a(F1487976944.7363
F1487976987.649106
tp556
a(F1487976945.0099931
F1487977019.0199499
tp557
a(F1487976944.9525001
F1487976992.0356629
tp558
a(F1487976945.16171
F1487977020.562979
tp559
a(F1487976945.1571469
F1487977019.9439981
tp560
a(F1487976945.265841
F1487976995.0165911
tp561
a(F1487976945.703367
F1487976994.706424
tp562
a(F1487976946.2931409
F1487976990.210202
tp563
a(F1487976945.1307261
F1487976991.8233969
tp564
a(F1487976945.4534581
F1487977024.557466
tp565
a(F1487976945.2612431
F1487977023.87761
tp566
a(F1487976946.112427
F1487977004.5507159
tp567
a(F1487976945.518398
F1487976997.453697
tp568
a(F1487976945.563853
F1487977021.974232
tp569
a(F1487976945.717458
F1487977001.6129019
tp570
a(F1487976945.255091
F1487976990.755439
tp571
a(F1487976945.5779841
F1487976999.2198491
tp572
a(F1487976946.089114
F1487976996.6786261
tp573
a(F1487976945.6774189
F1487976986.6947269
tp574
a(F1487976945.503793
F1487977021.471494
tp575
a(F1487976945.696831
F1487976984.59519
tp576
a(F1487976945.260591
F1487977031.051569
tp577
a(F1487976946.2166741
F1487976995.5320449
tp578
a(F1487976946.0631721
F1487977025.100343
tp579
a(F1487976946.0123
F1487976993.601537
tp580
a(F1487976945.8034029
F1487976981.6992221
tp581
a(F1487976945.486748
F1487976998.6022191
tp582
a(F1487976945.193352
F1487977024.7320139
tp583
a(F1487976945.7712691
F1487977023.6158359
tp584
a(F1487976945.4167271
F1487976978.0192039
tp585
a(F1487976945.1746261
F1487977020.54667
tp586
a(F1487976945.9078879
F1487976996.7861669
tp587
a(F1487976946.080272
F1487977021.9987969
tp588
a(F1487976946.4845369
F1487977024.809113
tp589
a(F1487976945.6886101
F1487977022.3520629
tp590
a(F1487976946.168416
F1487977027.1849539
tp591
a(F1487976945.273339
F1487977002.3100929
tp592
a(F1487976945.4576061
F1487977024.3791311
tp593
a(F1487976944.9209459
F1487977022.200937
tp594
a(F1487976945.6277599
F1487977004.0588901
tp595
a(F1487976946.283668
F1487976993.0976701
tp596
a(F1487976946.105226
F1487976989.4907589
tp597
a(F1487976945.673914
F1487976992.503942
tp598
a(F1487976946.083205
F1487976994.469074
tp599
a(F1487976946.393889
F1487977006.814784
tp600
a(F1487976939.212657
F1487976980.697505
tp601
a(F1487976945.7111239
F1487976994.3242061
tp602
a(F1487976945.3526399
F1487977006.8931429
tp603
a(F1487976946.5845981
F1487977002.33987
tp604
a(F1487976945.72311
F1487977022.8970251
tp605
a(F1487976945.780319
F1487977026.405344
tp606
a(F1487976945.7615459
F1487976998.193042
tp607
a(F1487976945.83164
F1487977031.8640959
tp608
a(F1487976939.237695
F1487977156.079721
tp609
a(F1487976946.1119089
F1487977026.8578341
tp610
a(F1487976946.287251
F1487977021.2123301
tp611
a(F1487976945.3269501
F1487977002.326966
tp612
a(F1487976946.037555
F1487977000.88433
tp613
a(F1487976945.707835
F1487977020.547678
tp614
a(F1487976945.573807
F1487977007.109776
tp615
a(F1487976955.9319379
F1487977037.2958181
tp616
a(F1487976946.197742
F1487977002.943177
tp617
a(F1487976946.223793
F1487976999.902544
tp618
a(F1487976945.9200771
F1487976995.2964489
tp619
a(F1487976945.1299839
F1487977020.5939331
tp620
a(F1487976944.5114501
F1487977019.2301071
tp621
a(F1487976945.5374269
F1487977023.344466
tp622
a(F1487976945.8927391
F1487977020.0945289
tp623
a(F1487976946.254596
F1487977019.6120379
tp624
a(F1487976946.3300309
F1487977021.271807
tp625
a(F1487976945.1073201
F1487977003.4171319
tp626
a(F1487976946.6487319
F1487977023.632215
tp627
a(F1487976946.4790471
F1487977020.477879
tp628
a(F1487976949.894917
F1487977025.286341
tp629
a(F1487976945.8887019
F1487976994.713181
tp630
a(F1487976939.3457301
F1487976979.2766941
tp631
a(F1487976946.382436
F1487977022.927453
tp632
a(F1487976945.2651
F1487976988.7150581
tp633
a(F1487976946.016202
F1487976986.438659
tp634
a(F1487976946.0317619
F1487977020.510649
tp635
a(F1487976945.8990331
F1487977004.4302509
tp636
a(F1487976946.4662271
F1487977019.1793301
tp637
a(F1487976946.2484081
F1487977020.3108449
tp638
a(F1487976945.8925159
F1487977019.373913
tp639
a(F1487976946.342859
F1487977025.017719
tp640
a(F1487976946.3850601
F1487977019.4927311
tp641
a(F1487976945.884747
F1487977018.7443149
tp642
a(F1487976946.0981531
F1487976994.057533
tp643
a(F1487976945.86852
F1487976984.8739851
tp644
a(F1487976946.9030421
F1487977001.8602581
tp645
a(F1487976945.872746
F1487977021.2976849
tp646
a(F1487976946.220401
F1487977020.7608919
tp647
a(F1487976946.4858291
F1487977019.0348599
tp648
a(F1487976945.750504
F1487977021.795351
tp649
a(F1487976947.552264
F1487977007.490433
tp650
a(F1487976946.072726
F1487977001.3893681
tp651
a(F1487976945.627511
F1487977020.3383751
tp652
a(F1487976947.1733291
F1487977021.4810851
tp653
a(F1487976946.4673181
F1487976998.441767
tp654
a(F1487976945.9229839
F1487977018.9634039
tp655
a(F1487976946.1622989
F1487977008.035933
tp656
a(F1487976945.696579
F1487976998.1726761
tp657
a(F1487976946.736227
F1487977027.550065
tp658
a(F1487976946.103956
F1487977024.2671831
tp659
a(F1487976946.2747569
F1487977023.6979189
tp660
a(F1487976946.056776
F1487977020.5879259
tp661
a(F1487976945.818022
F1487976994.6993649
tp662
a(F1487976945.945945
F1487977004.865586
tp663
a(F1487976946.421814
F1487976996.2788391
tp664
a(F1487976946.680346
F1487976998.422399
tp665
a(F1487976946.1136551
F1487976995.1810901
tp666
a(F1487976946.5862341
F1487977021.0159869
tp667
a(F1487976946.6269591
F1487977021.6368799
tp668
a(F1487976946.1596191
F1487976987.798877
tp669
a(F1487976946.691417
F1487977024.161114
tp670
a(F1487976946.416121
F1487977002.133935
tp671
a(F1487976946.1277571
F1487977005.0988939
tp672
a(F1487976945.9387619
F1487977003.7657621
tp673
a(F1487976946.123888
F1487976988.066165
tp674
a(F1487976946.14399
F1487977025.3562839
tp675
a(F1487976946.4649019
F1487977022.062242
tp676
a(F1487976946.7662439
F1487977006.0576291
tp677
a(F1487976946.535542
F1487977019.52617
tp678
a(F1487976939.8385201
F1487977006.066618
tp679
a(F1487976946.756788
F1487977039.997849
tp680
a(F1487976948.2188921
F1487976993.959969
tp681
a(F1487976946.309783
F1487976991.2439179
tp682
a(F1487976946.553483
F1487977021.4020669
tp683
a(F1487976946.935668
F1487976999.549063
tp684
a(F1487976946.161417
F1487976988.5512559
tp685
a(F1487976946.9364049
F1487976990.4567289
tp686
a(F1487976947.541116
F1487976985.277209
tp687
a(F1487976946.9824059
F1487976983.6100991
tp688
a(F1487976946.3227789
F1487977020.266068
tp689
a(F1487976946.4720099
F1487977036.740875
tp690
a(F1487976946.4067559
F1487977005.9519801
tp691
a(F1487976946.333396
F1487977001.5188019
tp692
a(F1487976946.0820391
F1487977020.673192
tp693
a(F1487976946.354177
F1487976991.062588
tp694
a(F1487976946.622386
F1487977021.3918459
tp695
a(F1487976946.643919
F1487977024.994704
tp696
a(F1487976946.823442
F1487977008.054538
tp697
a(F1487976946.7891569
F1487977021.6347101
tp698
a(F1487976945.998728
F1487976993.5091629
tp699
a(F1487976946.5037611
F1487977029.8062241
tp700
a(F1487976946.314513
F1487977004.6728439
tp701
a(F1487976946.8823359
F1487977026.187567
tp702
a(F1487976947.263526
F1487977021.4693251
tp703
a(F1487976962.080024
F1487977023.4686179
tp704
a(F1487976946.8478689
F1487977021.507834
tp705
a(F1487976946.4697599
F1487977001.519412
tp706
a(F1487976946.625294
F1487977041.9725001
tp707
a(F1487976946.0432229
F1487977029.000639
tp708
a(F1487976939.901768
F1487976981.1851721
tp709
a(F1487976946.510359
F1487977006.731854
tp710
a(F1487976946.783567
F1487977020.8915811
tp711
a(F1487976947.1506989
F1487976998.568167
tp712
a(F1487976946.6087711
F1487976991.263967
tp713
a(F1487976946.5029891
F1487977021.604485
tp714
a(F1487976946.9297211
F1487976996.316747
tp715
a(F1487976947.054697
F1487977023.0795431
tp716
a(F1487976946.799546
F1487977024.3086071
tp717
a(F1487976946.4251499
F1487977021.01156
tp718
a(F1487976946.95175
F1487977000.942343
tp719
a(F1487976946.713397
F1487977021.945847
tp720
a(F1487976946.210078
F1487976992.6351111
tp721
a(F1487976947.098098
F1487977021.133616
tp722
a(F1487976946.9364491
F1487977023.0030789
tp723
a(F1487976947.377836
F1487977023.004132
tp724
a(F1487976946.995635
F1487977027.9530289
tp725
a(F1487976947.386585
F1487977005.120918
tp726
a(F1487976946.6558759
F1487976985.4038579
tp727
a(F1487976946.6488969
F1487977006.0433249
tp728
a(F1487976946.524929
F1487977020.67802
tp729
a(F1487976947.021219
F1487977018.9067609
tp730
a(F1487976940.126452
F1487976983.1227241
tp731
a(F1487976946.6025791
F1487977020.7206111
tp732
a(F1487976946.6750009
F1487977021.8340759
tp733
a(F1487976940.1276691
F1487977004.2544351
tp734
a(F1487976947.819742
F1487977029.059015
tp735
a(F1487976947.236733
F1487977006.4674859
tp736
a(F1487976946.2112081
F1487976989.58724
tp737
a(F1487976947.0633471
F1487976994.670265
tp738
a(F1487976946.5239861
F1487977020.065078
tp739
a(F1487976947.025171
F1487977005.651201
tp740
a(F1487976946.734427
F1487977021.81217
tp741
a(F1487976946.936451
F1487977006.4103889
tp742
a(F1487976947.2802351
F1487976993.2427411
tp743
a(F1487976947.100286
F1487976995.190032
tp744
a(F1487976946.7141531
F1487977027.684684
tp745
a(F1487976940.4185541
F1487976980.92049
tp746
a(F1487976946.897517
F1487977000.265177
tp747
a(F1487976947.075212
F1487977023.313271
tp748
a(F1487976947.0002151
F1487976994.075819
tp749
a(F1487976946.7905419
F1487977025.006804
tp750
a(F1487976947.703011
F1487977022.172447
tp751
a(F1487976946.828773
F1487977021.138284
tp752
a(F1487976946.7052181
F1487976994.176882
tp753
a(F1487976947.1519279
F1487977018.3207669
tp754
a(F1487976947.3197451
F1487977022.2010889
tp755
a(F1487976947.0610981
F1487977021.0818679
tp756
a(F1487976946.596487
F1487977024.2636521
tp757
a(F1487976947.165673
F1487977018.7124169
tp758
a(F1487976947.1993189
F1487977021.9713991
tp759
a(F1487976947.2889571
F1487977017.376936
tp760
a(F1487976947.213151
F1487977022.6428211
tp761
a(F1487976947.0321081
F1487977022.415626
tp762
a(F1487976947.3086309
F1487977005.26595
tp763
a(F1487976947.417779
F1487976984.8712449
tp764
a(F1487976947.2497571
F1487976998.6154921
tp765
a(F1487976947.5357161
F1487977023.0416291
tp766
a(F1487976947.4066989
F1487977034.8777201
tp767
a(F1487976947.0452011
F1487977017.9527259
tp768
a(F1487976947.067826
F1487977019.363709
tp769
a(F1487976947.373162
F1487977020.1968961
tp770
a(F1487976947.0132821
F1487977020.2561309
tp771
a(F1487976947.4533539
F1487977006.088515
tp772
a(F1487976948.2474339
F1487977002.4772961
tp773
a(F1487976947.3083971
F1487977018.2671411
tp774
a(F1487976947.4437611
F1487977025.191329
tp775
a(F1487976947.4764521
F1487977020.759866
tp776
a(F1487976947.6646709
F1487977023.907274
tp777
a(F1487976952.8243091
F1487976997.3801651
tp778
a(F1487976947.6100309
F1487977024.4932461
tp779
a(F1487976947.535665
F1487977024.4500389
tp780
a(F1487976947.737684
F1487977020.880018
tp781
a(F1487976940.592684
F1487976982.7717841
tp782
a(F1487976947.1737981
F1487977021.256264
tp783
a(F1487976946.7344339
F1487977022.348696
tp784
a(F1487976946.930918
F1487977025.256016
tp785
a(F1487976947.258774
F1487977001.9475131
tp786
a(F1487976947.499939
F1487977003.9401081
tp787
a(F1487976947.4605861
F1487977045.1029291
tp788
a(F1487976947.6364319
F1487977019.5351319
tp789
a(F1487976946.9831851
F1487976991.4336641
tp790
a(F1487976947.3496261
F1487977003.3898349
tp791
a(F1487976947.1466939
F1487977023.1101351
tp792
a(F1487976947.4654469
F1487977023.5793359
tp793
a(F1487976947.195564
F1487976984.490283
tp794
a(F1487976948.059588
F1487977021.336992
tp795
a(F1487976947.7655759
F1487977020.19575
tp796
a(F1487976947.142612
F1487977024.5810289
tp797
a(F1487976947.3003809
F1487977018.472641
tp798
a(F1487976948.191159
F1487977046.272197
tp799
a(F1487976947.7438209
F1487977020.8572991
tp800
a(F1487976947.4927211
F1487977022.3973849
tp801
a(F1487976948.355592
F1487976990.224587
tp802
a(F1487976947.3973491
F1487977006.1068931
tp803
a(F1487976948.4309199
F1487977022.363282
tp804
a(F1487976947.797997
F1487977023.157716
tp805
a(F1487976947.5830951
F1487977020.9332609
tp806
a(F1487976947.3240631
F1487977029.3049281
tp807
a(F1487976947.2916141
F1487977020.244771
tp808
a(F1487976948.282305
F1487977021.255476
tp809
a(F1487976947.4620581
F1487977026.3585351
tp810
a(F1487976947.3313899
F1487977020.6981461
tp811
a(F1487976948.8978429
F1487977022.1745889
tp812
a(F1487976945.928057
F1487976983.9561901
tp813
a(F1487976947.9192281
F1487977021.2991819
tp814
a(F1487976947.558923
F1487977024.4585569
tp815
a(F1487976947.2906229
F1487976998.701499
tp816
a(F1487976947.5312679
F1487977021.754621
tp817
a(F1487976947.321481
F1487976998.6972361
tp818
a(F1487976948.1222799
F1487977021.0925159
tp819
a(F1487976947.3447051
F1487977025.568028
tp820
a(F1487976947.5100391
F1487976987.276017
tp821
a(F1487976947.2240081
F1487977001.9070749
tp822
a(F1487976947.8053401
F1487977001.6903269
tp823
a(F1487976947.6214001
F1487977025.159188
tp824
a(F1487976948.7125161
F1487977029.704247
tp825
a(F1487976947.3703401
F1487977026.958874
tp826
a(F1487976940.9217651
F1487976997.324764
tp827
a(F1487976948.1603091
F1487977023.9918251
tp828
a(F1487976948.0512829
F1487977020.6926551
tp829
a(F1487976947.6819999
F1487977020.2635679
tp830
a(F1487976947.8035481
F1487977025.1588609
tp831
a(F1487976947.8980989
F1487977023.732327
tp832
a(F1487976947.6611631
F1487977155.522259
tp833
a(F1487976947.608753
F1487977020.605653
tp834
a(F1487976948.032161
F1487977020.3626959
tp835
a(F1487976948.1958549
F1487977025.469156
tp836
a(F1487976947.718029
F1487977022.208607
tp837
a(F1487976941.116442
F1487977021.3463061
tp838
a(F1487976947.956408
F1487977020.442868
tp839
a(F1487976947.9444959
F1487977020.7305541
tp840
a(F1487976947.8794551
F1487977019.1093709
tp841
a(F1487976961.943934
F1487977024.5121911
tp842
a(F1487976948.1234069
F1487977039.781749
tp843
a(F1487976947.905653
F1487977004.3464069
tp844
a(F1487976947.9607079
F1487977019.389713
tp845
a(F1487976948.2083211
F1487977020.2767861
tp846
a(F1487976947.8223481
F1487976996.978991
tp847
a(F1487976947.378109
F1487977021.2633491
tp848
a(F1487976947.7095981
F1487977022.0307789
tp849
a(F1487976948.0360129
F1487977020.887351
tp850
a(F1487976947.8834729
F1487977024.624053
tp851
a(F1487976947.708637
F1487977021.406085
tp852
a(F1487976948.2750759
F1487977020.200711
tp853
a(F1487976947.5981419
F1487976995.755075
tp854
a(F1487976947.7054651
F1487977020.073194
tp855
a(F1487976948.0222909
F1487977021.95487
tp856
a(F1487976947.6800921
F1487977000.1308939
tp857
a(F1487976947.832792
F1487977022.8711751
tp858
a(F1487976948.2866931
F1487977023.0479021
tp859
a(F1487976947.9648881
F1487977020.6937621
tp860
a(F1487976949.4669051
F1487977041.3172109
tp861
a(F1487976948.840816
F1487977007.370259
tp862
a(F1487976947.8415451
F1487977023.520983
tp863
a(F1487976948.3963439
F1487976996.2414589
tp864
a(F1487976947.764327
F1487977022.759434
tp865
a(F1487976947.6500559
F1487977025.2060919
tp866
a(F1487976947.529727
F1487977022.2198751
tp867
a(F1487976947.595372
F1487976997.3996601
tp868
a(F1487976949.3063409
F1487977022.10198
tp869
a(F1487976948.1346021
F1487977020.197614
tp870
a(F1487976948.219449
F1487977004.2102449
tp871
a(F1487976948.181452
F1487977038.6958499
tp872
a(F1487976947.8133471
F1487977027.8072841
tp873
a(F1487976948.118171
F1487977020.2060671
tp874
a(F1487976948.2068551
F1487977020.9358611
tp875
a(F1487976948.2728231
F1487977026.293968
tp876
a(F1487976947.678838
F1487977025.0613821
tp877
a(F1487976948.276732
F1487977023.2093971
tp878
a(F1487976948.5428939
F1487977019.1360941
tp879
a(F1487976948.6383481
F1487977004.155338
tp880
a(F1487976947.502701
F1487977018.626971
tp881
a(F1487976948.3338809
F1487977021.1440539
tp882
a(F1487976948.2121069
F1487977025.611491
tp883
a(F1487976947.9352651
F1487977003.0218239
tp884
a(F1487976948.145612
F1487977022.595665
tp885
a(F1487976948.5226951
F1487977072.8595791
tp886
a(F1487976949.0863681
F1487976991.5643561
tp887
a(F1487976948.1584761
F1487977025.9243979
tp888
a(F1487976948.1524391
F1487977044.6899641
tp889
a(F1487976948.331995
F1487977022.9402039
tp890
a(F1487976947.825433
F1487977038.5679989
tp891
a(F1487976948.0113249
F1487977021.6016259
tp892
a(F1487976948.1607649
F1487977021.3172829
tp893
a(F1487976948.104584
F1487977020.175288
tp894
a(F1487976948.0431781
F1487977038.8755209
tp895
a(F1487976948.562397
F1487977026.9490759
tp896
a(F1487976947.8245709
F1487976995.101578
tp897
a(F1487976948.32371
F1487977022.7802589
tp898
a(F1487976948.52052
F1487977021.4205439
tp899
a(F1487976948.223067
F1487977028.102699
tp900
a(F1487976948.1120069
F1487977026.4484439
tp901
a(F1487976948.069957
F1487977022.819313
tp902
a(F1487976947.9278879
F1487976994.315052
tp903
a(F1487976948.7161
F1487977022.86865
tp904
a(F1487976941.446593
F1487976986.4880991
tp905
a(F1487976948.415256
F1487977020.6730001
tp906
a(F1487976948.5227039
F1487977003.9658289
tp907
a(F1487976948.2025189
F1487977021.4505451
tp908
a(F1487976948.498924
F1487977057.5251369
tp909
a(F1487976948.388154
F1487977028.040638
tp910
a(F1487976948.822464
F1487977020.2931471
tp911
a(F1487976948.5257771
F1487977023.305464
tp912
a(F1487976948.9685919
F1487977000.086822
tp913
a(F1487976951.4432449
F1487977021.9629829
tp914
a(F1487976947.72278
F1487977021.77811
tp915
a(F1487976948.399255
F1487977022.1803479
tp916
a(F1487976948.000035
F1487977020.9584069
tp917
a(F1487976951.245466
F1487977027.7307279
tp918
a(F1487976948.6665061
F1487977024.7993841
tp919
a(F1487976948.402329
F1487976988.8303981
tp920
a(F1487976948.5016251
F1487977037.3862879
tp921
a(F1487976949.369638
F1487976998.5851221
tp922
a(F1487976948.4911449
F1487977023.3672731
tp923
a(F1487976948.9021411
F1487976995.984658
tp924
a(F1487976948.5429399
F1487977020.60534
tp925
a(F1487976948.3095479
F1487977024.6890039
tp926
a(F1487976948.9110019
F1487977025.5672331
tp927
a(F1487976948.566992
F1487976983.8206401
tp928
a(F1487976948.2063301
F1487977033.012042
tp929
a(F1487976948.3549891
F1487977026.187639
tp930
a(F1487976948.8508589
F1487976997.5303741
tp931
a(F1487976948.709995
F1487976990.6530769
tp932
a(F1487976948.448561
F1487977036.138453
tp933
a(F1487976948.576318
F1487977022.124599
tp934
a(F1487976948.6239369
F1487977024.0641501
tp935
a(F1487976947.7511621
F1487977000.577353
tp936
a(F1487976948.3874919
F1487977000.440491
tp937
a(F1487976948.7611811
F1487977006.7014911
tp938
a(F1487976949.5263851
F1487977020.5279281
tp939
a(F1487976948.580694
F1487977020.196038
tp940
a(F1487976948.6116791
F1487977025.502105
tp941
a(F1487976948.438242
F1487977003.5358579
tp942
a(F1487976948.243273
F1487977028.182946
tp943
a(F1487976949.1866069
F1487977019.197592
tp944
a(F1487976948.085284
F1487977020.995986
tp945
a(F1487976941.6155851
F1487977004.6661201
tp946
a(F1487976948.6099191
F1487977007.047169
tp947
a(F1487976948.309031
F1487977021.1974089
tp948
a(F1487976947.784708
F1487977021.9183331
tp949
a(F1487976960.045785
F1487977023.864542
tp950
a(F1487976948.3330691
F1487977026.986938
tp951
a(F1487976949.1037459
F1487977020.4540069
tp952
a(F1487976948.397361
F1487977020.897011
tp953
a(F1487976948.134464
F1487977022.210428
tp954
a(F1487976948.5695059
F1487977006.311399
tp955
a(F1487976949.2944551
F1487977021.7909839
tp956
a(F1487976948.5435901
F1487977034.6644261
tp957
a(F1487976948.4071989
F1487977024.4585609
tp958
a(F1487976941.960583
F1487976988.3619549
tp959
a(F1487976948.667454
F1487977021.3793089
tp960
a(F1487976948.537487
F1487976999.3071361
tp961
a(F1487976948.26933
F1487977025.854552
tp962
a(F1487976948.3621409
F1487976990.775162
tp963
a(F1487976948.5243831
F1487977005.7527289
tp964
a(F1487976948.6149721
F1487977021.2188449
tp965
a(F1487976949.031117
F1487977006.8684781
tp966
a(F1487976950.8100419
F1487976996.0806899
tp967
a(F1487976948.5290229
F1487977022.316287
tp968
a(F1487976948.5842021
F1487977021.4168999
tp969
a(F1487976948.834938
F1487977022.6447351
tp970
a(F1487976942.397182
F1487976997.4639821
tp971
a(F1487976948.8775101
F1487977020.5167799
tp972
a(F1487976949.1856151
F1487976996.719233
tp973
a(F1487976941.8963079
F1487977005.4506609
tp974
a(F1487976948.6204691
F1487977019.545141
tp975
a(F1487976948.980762
F1487977025.8718851
tp976
a(F1487976949.057683
F1487977026.7372451
tp977
a(F1487976948.5096979
F1487977026.3896
tp978
a(F1487976950.1545179
F1487976991.1149361
tp979
a(F1487976948.8198471
F1487977019.433166
tp980
a(F1487976948.719451
F1487977020.867125
tp981
a(F1487976949.1310649
F1487977026.6475129
tp982
a(F1487976941.8520041
F1487977005.567749
tp983
a(F1487976948.8808899
F1487977026.7645171
tp984
a(F1487976949.207011
F1487977005.662271
tp985
a(F1487976948.7626679
F1487977004.8555341
tp986
a(F1487976948.8189421
F1487977022.442847
tp987
a(F1487976948.802634
F1487977022.871238
tp988
a(F1487976948.915045
F1487977022.257163
tp989
a(F1487976948.125365
F1487977023.60426
tp990
a(F1487976949.341784
F1487977006.294565
tp991
a(F1487976948.871479
F1487977020.7183411
tp992
a(F1487976942.0676739
F1487976987.976608
tp993
a(F1487976948.9025781
F1487977022.6550181
tp994
a(F1487976949.0280969
F1487977019.2365761
tp995
a(F1487976949.0788219
F1487977022.812423
tp996
a(F1487976948.91889
F1487977022.0645759
tp997
a(F1487976949.6156189
F1487977045.6364629
tp998
a(F1487976948.954201
F1487977023.244874
tp999
a(F1487976948.6905129
F1487977021.4754419
tp1000
a(F1487976949.1509609
F1487977021.9298589
tp1001
a(F1487976948.9168611
F1487977036.386364
tp1002
a(F1487976948.800612
F1487976994.2556219
tp1003
a(F1487976948.96242
F1487977023.3019519
tp1004
a(F1487976949.201941
F1487977022.8993599
tp1005
a(F1487976948.9302771
F1487977029.4230731
tp1006
a(F1487976948.860553
F1487977024.747242
tp1007
a(F1487976942.2675109
F1487976996.0224099
tp1008
a(F1487976948.816262
F1487976995.2190969
tp1009
a(F1487976942.062674
F1487976986.7960279
tp1010
a(F1487976949.4125259
F1487977021.8156929
tp1011
a(F1487976949.090354
F1487977019.822325
tp1012
a(F1487976948.8477409
F1487977026.7520189
tp1013
a(F1487976949.4664409
F1487977020.4668169
tp1014
a(F1487976948.7809081
F1487977028.692142
tp1015
a(F1487976949.0592959
F1487976999.9919951
tp1016
a(F1487976949.5764101
F1487977024.6978741
tp1017
a(F1487976949.1872101
F1487977022.405632
tp1018
a(F1487976942.096163
F1487977004.3090811
tp1019
a(F1487976949.476732
F1487977024.8444109
tp1020
a(F1487976949.0409529
F1487976990.1692929
tp1021
a(F1487976948.931668
F1487977023.58058
tp1022
a(F1487976948.590349
F1487977020.7934649
tp1023
a(F1487976949.2371609
F1487977007.463068
tp1024
a(F1487976949.25421
F1487976993.054574
tp1025
a(F1487976949.1075709
F1487977029.161145
tp1026
a(F1487976949.5421171
F1487977044.3861389
tp1027
a(F1487976948.6675661
F1487977021.6414151
tp1028
a(F1487976949.572531
F1487977026.064193
tp1029
a(F1487976949.0181279
F1487977021.4344261
tp1030
a(F1487976942.3894091
F1487977006.4939001
tp1031
a(F1487976949.5456741
F1487977000.5219059
tp1032
a(F1487976949.1157889
F1487977023.113903
tp1033
a(F1487976949.602416
F1487977020.4462631
tp1034
a(F1487976949.1357379
F1487977026.146661
tp1035
a(F1487976949.402746
F1487977018.6316359
tp1036
a(F1487976948.6475959
F1487977024.23985
tp1037
a(F1487976949.5611811
F1487977021.6178081
tp1038
a(F1487976950.1395011
F1487977020.1772611
tp1039
a(F1487976948.9853959
F1487977021.7827179
tp1040
a(F1487976950.0328569
F1487977024.7062809
tp1041
a(F1487976949.0048139
F1487977020.174175
tp1042
a(F1487976949.6408491
F1487977023.977129
tp1043
a(F1487976948.490767
F1487976991.213191
tp1044
a(F1487976948.9494729
F1487976991.7905631
tp1045
a(F1487976949.2726369
F1487977019.369664
tp1046
a(F1487976949.0498359
F1487976998.6510379
tp1047
a(F1487976949.3652649
F1487977029.697361
tp1048
a(F1487976952.196523
F1487977021.0435081
tp1049
a(F1487976949.251514
F1487977006.8786139
tp1050
a(F1487976949.4865201
F1487977045.11028
tp1051
a(F1487976949.365751
F1487977024.3626471
tp1052
a(F1487976949.6302471
F1487977001.1876309
tp1053
a(F1487976949.210541
F1487977022.039346
tp1054
a(F1487976949.8777461
F1487977004.839823
tp1055
a(F1487976949.395915
F1487977021.2833109
tp1056
a(F1487976949.843591
F1487976995.699872
tp1057
a(F1487976949.3359179
F1487976998.548322
tp1058
a(F1487976947.470392
F1487977021.0435591
tp1059
a(F1487976949.3066959
F1487977019.94225
tp1060
a(F1487976950.1949649
F1487977025.3811979
tp1061
a(F1487976951.511163
F1487977023.6886539
tp1062
a(F1487976949.468847
F1487977029.2548721
tp1063
a(F1487976949.9288709
F1487977022.271101
tp1064
a(F1487976949.244246
F1487977021.9895351
tp1065
a(F1487976949.2457991
F1487977023.683758
tp1066
a(F1487976949.7152171
F1487977019.824105
tp1067
a(F1487976950.08147
F1487977020.7579379
tp1068
a(F1487976949.6087401
F1487977030.1751461
tp1069
a(F1487976949.455502
F1487977026.2589531
tp1070
a(F1487976942.4580369
F1487977003.522295
tp1071
a(F1487976949.6256189
F1487977020.928174
tp1072
a(F1487976949.423399
F1487977005.114049
tp1073
a(F1487976948.8448901
F1487977024.1206419
tp1074
a(F1487976950.0369229
F1487976993.25845
tp1075
a(F1487976949.5384171
F1487977030.0185421
tp1076
a(F1487976949.413681
F1487977021.8014531
tp1077
a(F1487976950.610949
F1487977006.27723
tp1078
a(F1487976947.860815
F1487977021.051872
tp1079
a(F1487976949.5497999
F1487976997.9403839
tp1080
a(F1487976949.58974
F1487977025.7551939
tp1081
a(F1487976949.3820469
F1487977021.101908
tp1082
a(F1487976950.64169
F1487977021.005548
tp1083
a(F1487976949.9899061
F1487977023.474407
tp1084
a(F1487976949.273845
F1487977024.287519
tp1085
a(F1487976949.348351
F1487977022.159152
tp1086
a(F1487976949.896966
F1487977020.8146441
tp1087
a(F1487976949.369132
F1487977023.1482401
tp1088
a(F1487976949.6934919
F1487977036.9101861
tp1089
a(F1487976949.885704
F1487977020.636101
tp1090
a(F1487976950.0508759
F1487977007.0568061
tp1091
a(F1487976949.981158
F1487977021.949487
tp1092
a(F1487976949.551693
F1487977007.5451391
tp1093
a(F1487976949.900213
F1487977021.3339911
tp1094
a(F1487976949.3845711
F1487976998.062077
tp1095
a(F1487976949.6354179
F1487977020.5249491
tp1096
a(F1487976949.619879
F1487977023.5516491
tp1097
a(F1487976949.5214379
F1487977020.4030409
tp1098
a(F1487976950.62253
F1487976996.962168
tp1099
a(F1487976949.444633
F1487977039.9448991
tp1100
a(F1487976950.240416
F1487977022.716713
tp1101
a(F1487976949.530978
F1487976996.0008371
tp1102
a(F1487976949.6451361
F1487977021.921325
tp1103
a(F1487976949.4492669
F1487977021.6723371
tp1104
a(F1487976949.5417659
F1487977021.2537639
tp1105
a(F1487976949.718317
F1487977004.1710429
tp1106
a(F1487976949.9301569
F1487977025.4227221
tp1107
a(F1487976950.617372
F1487977023.6485741
tp1108
a(F1487976942.7823839
F1487977027.487066
tp1109
a(F1487976949.9123571
F1487977021.3954101
tp1110
a(F1487976949.399472
F1487977020.1290541
tp1111
a(F1487976949.834605
F1487977004.5096531
tp1112
a(F1487976950.4406049
F1487977001.9748831
tp1113
a(F1487976949.4371791
F1487977024.208621
tp1114
a(F1487976950.9144199
F1487977004.383496
tp1115
a(F1487976942.878026
F1487977021.7924531
tp1116
a(F1487976949.3432291
F1487977018.541816
tp1117
a(F1487976951.0167861
F1487977022.1682079
tp1118
a(F1487976951.211231
F1487977021.7093761
tp1119
a(F1487976949.707937
F1487977020.7428811
tp1120
a(F1487976949.68507
F1487977022.5354071
tp1121
a(F1487976949.6794331
F1487977001.0095489
tp1122
a(F1487976959.1973801
F1487977023.822505
tp1123
a(F1487976950.057193
F1487977006.0628951
tp1124
a(F1487976950.3474309
F1487977020.137347
tp1125
a(F1487976949.990108
F1487977003.158427
tp1126
a(F1487976950.579632
F1487977026.6371341
tp1127
a(F1487976950.3114891
F1487977024.255635
tp1128
a(F1487976950.2681921
F1487977021.548635
tp1129
a(F1487976950.01245
F1487976991.2895181
tp1130
a(F1487976950.1622391
F1487977004.9555781
tp1131
a(F1487976950.323879
F1487977020.0783081
tp1132
a(F1487976950.457083
F1487977025.958854
tp1133
a(F1487976949.1642499
F1487977044.2350841
tp1134
a(F1487976949.8395929
F1487977023.8905449
tp1135
a(F1487976949.829447
F1487977021.7832201
tp1136
a(F1487976950.456583
F1487977023.815928
tp1137
a(F1487976950.9013481
F1487977020.9803741
tp1138
a(F1487976950.9715121
F1487977018.6401019
tp1139
a(F1487976950.1634159
F1487977023.1317589
tp1140
a(F1487976950.346787
F1487977025.7577071
tp1141
a(F1487976943.052875
F1487976996.020889
tp1142
a(F1487976950.1246099
F1487977002.733427
tp1143
a(F1487976954.8813701
F1487977022.753808
tp1144
a(F1487976950.1432149
F1487977001.426868
tp1145
a(F1487976950.289717
F1487977023.321939
tp1146
a(F1487976950.0157199
F1487977025.3975539
tp1147
a(F1487976949.98071
F1487977019.814281
tp1148
a(F1487976950.0743589
F1487977024.067945
tp1149
a(F1487976950.0066791
F1487977021.975554
tp1150
a(F1487976943.2155161
F1487976986.0407391
tp1151
a(F1487976949.9407909
F1487977023.1647789
tp1152
a(F1487976950.723557
F1487977004.241775
tp1153
a(F1487976949.7165239
F1487977020.4124031
tp1154
a(F1487976948.119478
F1487977002.612474
tp1155
a(F1487976949.9751971
F1487977021.994689
tp1156
a(F1487976950.3892641
F1487977024.9285171
tp1157
a(F1487976950.2316539
F1487977025.432148
tp1158
a(F1487976950.4351931
F1487977024.5989029
tp1159
a(F1487976949.724488
F1487977018.015151
tp1160
a(F1487976950.415894
F1487977031.0714929
tp1161
a(F1487976949.8014569
F1487977021.968029
tp1162
a(F1487976950.0015011
F1487977003.5929279
tp1163
a(F1487976950.179677
F1487977003.1989019
tp1164
a(F1487976950.313771
F1487977025.2218821
tp1165
a(F1487976950.3777781
F1487977022.440907
tp1166
a(F1487976943.292546
F1487976983.635035
tp1167
a(F1487976950.2990601
F1487977023.4060781
tp1168
a(F1487976950.4648941
F1487977023.0639601
tp1169
a(F1487976950.2372379
F1487977023.874979
tp1170
a(F1487976950.3629651
F1487977021.3706541
tp1171
a(F1487976948.57777
F1487977004.153713
tp1172
a(F1487976950.2332759
F1487977020.413676
tp1173
a(F1487976950.069649
F1487977028.3385429
tp1174
a(F1487976950.6586101
F1487977019.2644141
tp1175
a(F1487976950.9887459
F1487977018.7888939
tp1176
a(F1487976950.2817931
F1487977020.779223
tp1177
a(F1487976950.3570509
F1487977021.971853
tp1178
a(F1487976949.6593671
F1487977005.9304149
tp1179
a(F1487976950.4177711
F1487977024.4226291
tp1180
a(F1487976955.155371
F1487977023.852222
tp1181
a(F1487976950.3476131
F1487977019.165951
tp1182
a(F1487976950.514322
F1487977004.237715
tp1183
a(F1487976950.3615251
F1487977020.450666
tp1184
a(F1487976950.1865311
F1487977022.7161851
tp1185
a(F1487976949.2847071
F1487977003.2756951
tp1186
a(F1487976949.650893
F1487977037.1204801
tp1187
a(F1487976950.5577619
F1487977024.2796919
tp1188
a(F1487976950.3634579
F1487976996.1803219
tp1189
a(F1487976950.792305
F1487977021.4083371
tp1190
a(F1487976950.40539
F1487977023.97279
tp1191
a(F1487976950.31161
F1487977003.0459459
tp1192
a(F1487976953.6079321
F1487977021.173897
tp1193
a(F1487976950.4936819
F1487977001.9396141
tp1194
a(F1487976950.378289
F1487977022.4775529
tp1195
a(F1487976950.6131401
F1487977022.3161371
tp1196
a(F1487976950.965867
F1487977022.19558
tp1197
a(F1487976950.3537109
F1487977022.3704801
tp1198
a(F1487976950.2387459
F1487977025.3291991
tp1199
a(F1487976949.9696541
F1487977005.1022429
tp1200
a(F1487976951.46066
F1487977024.6047311
tp1201
a(F1487976950.498816
F1487977019.3921289
tp1202
a(F1487976950.5419769
F1487977023.81299
tp1203
a(F1487976951.083813
F1487977020.7929361
tp1204
a(F1487976950.2479899
F1487977024.5949359
tp1205
a(F1487976950.3853641
F1487977021.479954
tp1206
a(F1487976950.8792479
F1487977020.4101181
tp1207
a(F1487976950.3355851
F1487977028.0851631
tp1208
a(F1487976950.053628
F1487977019.6151669
tp1209
a(F1487976950.455662
F1487977020.4350221
tp1210
a(F1487976950.292088
F1487977019.877773
tp1211
a(F1487976950.308352
F1487977020.4529121
tp1212
a(F1487976950.326443
F1487977024.6227291
tp1213
a(F1487976950.2410891
F1487977007.5206251
tp1214
a(F1487976950.3712981
F1487977022.494292
tp1215
a(F1487976950.5710161
F1487977005.3106439
tp1216
a(F1487976951.063971
F1487977024.3404911
tp1217
a(F1487976951.202096
F1487977022.4067509
tp1218
a(F1487976950.347441
F1487977024.8046441
tp1219
a(F1487976950.598841
F1487977022.4252629
tp1220
a(F1487976950.3922379
F1487977024.0435929
tp1221
a(F1487976950.5486691
F1487977020.149663
tp1222
a(F1487976950.7054811
F1487977021.1211219
tp1223
a(F1487976951.479362
F1487977028.263572
tp1224
a(F1487976950.4723079
F1487977021.527637
tp1225
a(F1487976950.847188
F1487977025.0768571
tp1226
a(F1487976950.4131601
F1487977027.3441169
tp1227
a(F1487976950.516578
F1487977024.5995519
tp1228
a(F1487976951.2282419
F1487976993.1751249
tp1229
a(F1487976950.4931049
F1487977000.0357859
tp1230
a(F1487976950.6452129
F1487977021.3774581
tp1231
a(F1487976950.4089551
F1487977022.054394
tp1232
a(F1487976950.490057
F1487977020.6862049
tp1233
a(F1487976950.588285
F1487977025.3138001
tp1234
a(F1487976951.232522
F1487977023.9250469
tp1235
a(F1487976950.7685361
F1487977032.5766301
tp1236
a(F1487976951.800909
F1487977024.823473
tp1237
a(F1487976950.486587
F1487977020.068964
tp1238
a(F1487976951.5525
F1487977024.881706
tp1239
a(F1487976950.691921
F1487977022.9361811
tp1240
a(F1487976950.127058
F1487977023.5239749
tp1241
a(F1487976950.606981
F1487977022.762851
tp1242
a(F1487976950.613416
F1487977003.766269
tp1243
a(F1487976950.509625
F1487977020.245168
tp1244
a(F1487976950.8741069
F1487977032.9326401
tp1245
a(F1487976950.064414
F1487977004.213295
tp1246
a(F1487976952.135314
F1487977023.869019
tp1247
a(F1487976950.7708139
F1487977029.7527699
tp1248
a(F1487976951.5109711
F1487977021.111141
tp1249
a(F1487976952.4123149
F1487977023.649008
tp1250
a(F1487976951.795414
F1487977023.099056
tp1251
a(F1487976956.6532471
F1487977022.4430759
tp1252
a(F1487976954.310487
F1487977025.319092
tp1253
a(F1487976951.0302401
F1487977026.5911889
tp1254
a(F1487976950.659333
F1487977020.555898
tp1255
a(F1487976951.046443
F1487977022.458668
tp1256
a(F1487976951.635385
F1487977033.617451
tp1257
a(F1487976951.0443759
F1487977021.767998
tp1258
a(F1487976950.8626809
F1487977025.70542
tp1259
a(F1487976950.9380391
F1487977031.901248
tp1260
a(F1487976950.9523489
F1487977025.503799
tp1261
a(F1487976950.5599411
F1487977021.662699
tp1262
a(F1487976950.614625
F1487977025.683768
tp1263
a(F1487976950.4493279
F1487977035.23347
tp1264
a(F1487976951.0581231
F1487977021.9721179
tp1265
a(F1487976950.411237
F1487977006.258347
tp1266
a(F1487976951.3248291
F1487977021.3690231
tp1267
a(F1487976951.2812221
F1487977024.2177019
tp1268
a(F1487976951.3351929
F1487977032.829771
tp1269
a(F1487976950.7864029
F1487977022.416827
tp1270
a(F1487976956.8118329
F1487977024.431946
tp1271
a(F1487976950.993391
F1487977023.583405
tp1272
a(F1487976943.8699811
F1487976977.154568
tp1273
a(F1487976951.229213
F1487976996.6679029
tp1274
a(F1487976951.0680671
F1487977019.5663071
tp1275
a(F1487976951.119108
F1487977024.603595
tp1276
a(F1487976950.997308
F1487977005.4970911
tp1277
a(F1487976950.6293099
F1487977070.827009
tp1278
a(F1487976951.2001591
F1487977026.4734471
tp1279
a(F1487976950.845818
F1487977023.0741889
tp1280
a(F1487976951.3339231
F1487977024.6438789
tp1281
a(F1487976950.8404651
F1487977019.738096
tp1282
a(F1487976950.9774699
F1487977030.050456
tp1283
a(F1487976950.1609559
F1487977018.490581
tp1284
a(F1487976951.1911211
F1487977024.3520689
tp1285
a(F1487976951.1378369
F1487977004.736491
tp1286
a(F1487976951.2147329
F1487977026.8263791
tp1287
a(F1487976950.8755209
F1487977000.8580351
tp1288
a(F1487976951.244628
F1487977021.6223941
tp1289
a(F1487976951.3613081
F1487976995.3908429
tp1290
a(F1487976950.8445821
F1487977021.7889061
tp1291
a(F1487976951.3952751
F1487977020.7658191
tp1292
a(F1487976951.3144009
F1487977026.5159919
tp1293
a(F1487976950.457098
F1487977021.621125
tp1294
a(F1487976951.200211
F1487977021.6090901
tp1295
a(F1487976950.908298
F1487977020.3840239
tp1296
a(F1487976951.2013321
F1487977029.127146
tp1297
a(F1487976951.2969191
F1487977022.150188
tp1298
a(F1487976951.4214611
F1487977025.8338289
tp1299
a(F1487976951.0292821
F1487977023.469243
tp1300
a(F1487976950.8182361
F1487977025.3351779
tp1301
a(F1487976951.512552
F1487977025.3409531
tp1302
a(F1487976951.166882
F1487977024.3199141
tp1303
a(F1487976951.1603911
F1487977008.3023591
tp1304
a(F1487976950.6027739
F1487976996.8076539
tp1305
a(F1487976951.1335499
F1487977024.494071
tp1306
a(F1487976951.085135
F1487976998.7200661
tp1307
a(F1487976951.112376
F1487977003.7686191
tp1308
a(F1487976944.2189569
F1487976982.6886139
tp1309
a(F1487976951.539938
F1487977022.5742221
tp1310
a(F1487976951.1079731
F1487977023.8239329
tp1311
a(F1487976951.359498
F1487977021.6033151
tp1312
a(F1487976944.3471961
F1487977019.5560579
tp1313
a(F1487976944.1406729
F1487976984.2992561
tp1314
a(F1487976951.0514801
F1487977003.6315589
tp1315
a(F1487976952.008307
F1487977021.8515689
tp1316
a(F1487976950.746738
F1487977021.3533731
tp1317
a(F1487976951.1339631
F1487977026.6656051
tp1318
a(F1487976951.3507831
F1487977027.5408599
tp1319
a(F1487976950.3071411
F1487977037.2710879
tp1320
a(F1487976951.1260481
F1487977020.9941649
tp1321
a(F1487976951.358557
F1487977021.8901091
tp1322
a(F1487976951.1790969
F1487977025.504215
tp1323
a(F1487976951.4940021
F1487977029.457885
tp1324
a(F1487976951.416404
F1487977023.3619919
tp1325
a(F1487976951.3218369
F1487977026.1419351
tp1326
a(F1487976950.8117919
F1487977021.236568
tp1327
a(F1487976950.6411891
F1487977019.5690031
tp1328
a(F1487976951.3392551
F1487977023.5900011
tp1329
a(F1487976951.2004161
F1487976981.735424
tp1330
a(F1487976951.422967
F1487977025.409193
tp1331
a(F1487976951.8063459
F1487977000.1227751
tp1332
a(F1487976951.3716631
F1487977020.5349569
tp1333
a(F1487976944.5260849
F1487977021.4213741
tp1334
a(F1487976944.9002249
F1487976997.487875
tp1335
a(F1487976951.6445811
F1487977026.0877271
tp1336
a(F1487976951.1192601
F1487977025.27298
tp1337
a(F1487976951.392344
F1487977023.526778
tp1338
a(F1487976951.5826919
F1487977002.2857299
tp1339
a(F1487976951.5788119
F1487977021.637845
tp1340
a(F1487976945.7015309
F1487976986.8178191
tp1341
a(F1487976944.5465159
F1487977007.06183
tp1342
a(F1487976951.730912
F1487977004.4158161
tp1343
a(F1487976951.4375141
F1487977022.287689
tp1344
a(F1487976951.4127171
F1487977021.981096
tp1345
a(F1487976944.5091479
F1487977019.690109
tp1346
a(F1487976956.145021
F1487977022.223397
tp1347
a(F1487976952.655549
F1487977006.600461
tp1348
a(F1487976951.4162021
F1487977024.9309101
tp1349
a(F1487976952.1163039
F1487977036.491971
tp1350
a(F1487976951.5157299
F1487977020.785594
tp1351
a(F1487976951.5796731
F1487977022.6472189
tp1352
a(F1487976944.4789889
F1487976982.096983
tp1353
a(F1487976951.3838551
F1487977021.0063651
tp1354
a(F1487976951.3574469
F1487977022.2417231
tp1355
a(F1487976951.6150701
F1487977018.731468
tp1356
a(F1487976951.4849601
F1487977025.645947
tp1357
a(F1487976951.0638299
F1487977024.018692
tp1358
a(F1487976944.92377
F1487976997.442199
tp1359
a(F1487976951.4759951
F1487977021.179332
tp1360
a(F1487976951.4054999
F1487977022.6035249
tp1361
a(F1487976951.1619599
F1487977024.6158071
tp1362
a(F1487976944.4994011
F1487977021.3180799
tp1363
a(F1487976949.895303
F1487976990.4305451
tp1364
a(F1487976951.5370591
F1487977025.549926
tp1365
a(F1487976951.538799
F1487977029.0153389
tp1366
a(F1487976952.208328
F1487977023.5625989
tp1367
a(F1487976944.887434
F1487977021.254885
tp1368
a(F1487976951.3381541
F1487977025.761796
tp1369
a(F1487976952.6553969
F1487977022.4577579
tp1370
a(F1487976951.818413
F1487977019.7166531
tp1371
a(F1487976951.4664731
F1487977021.727288
tp1372
a(F1487976944.504329
F1487976992.8003349
tp1373
a(F1487976951.8913751
F1487977024.19225
tp1374
a(F1487976951.8095901
F1487977007.7285781
tp1375
a(F1487976944.4682341
F1487976986.3492761
tp1376
a(F1487976951.2400401
F1487977020.694854
tp1377
a(F1487976951.393193
F1487977026.023963
tp1378
a(F1487976951.069376
F1487976998.4360111
tp1379
a(F1487976944.5140841
F1487976977.228807
tp1380
a(F1487976944.9366119
F1487977035.928421
tp1381
a(F1487976951.6718531
F1487977022.3871789
tp1382
a(F1487976944.680568
F1487977023.0992169
tp1383
a(F1487976951.9858739
F1487977020.4913011
tp1384
a(F1487976951.4706841
F1487977003.6288061
tp1385
a(F1487976951.015058
F1487977020.446645
tp1386
a(F1487976951.0176959
F1487977028.7204411
tp1387
a(F1487976952.04005
F1487977020.2926631
tp1388
a(F1487976944.8810761
F1487977018.342459
tp1389
a(F1487976952.2910559
F1487977022.8615019
tp1390
a(F1487976944.8986421
F1487977024.5070779
tp1391
a(F1487976951.7825911
F1487977021.8250589
tp1392
a(F1487976944.7241969
F1487976996.659339
tp1393
a(F1487976944.7656541
F1487976986.3573599
tp1394
a(F1487976944.9085381
F1487976983.287118
tp1395
a(F1487976944.7354839
F1487977020.0649941
tp1396
a(F1487976952.1455629
F1487977024.5394311
tp1397
a(F1487976951.0840659
F1487977020.4295299
tp1398
a(F1487976952.637939
F1487977026.740011
tp1399
a(F1487976951.825048
F1487977007.0001111
tp1400
a(F1487976951.82848
F1487977021.9145291
tp1401
a(F1487976951.887331
F1487977023.5370669
tp1402
a(F1487976951.621139
F1487977025.629822
tp1403
a(F1487976951.97949
F1487977020.467454
tp1404
a(F1487976944.9797461
F1487977001.4427681
tp1405
a(F1487976944.8865819
F1487977004.3570931
tp1406
a(F1487976944.9778891
F1487977024.418025
tp1407
a(F1487976945.0532341
F1487976986.144558
tp1408
a(F1487976951.9994359
F1487977023.074898
tp1409
a(F1487976951.8474481
F1487977028.025564
tp1410
a(F1487976952.000962
F1487977021.5327611
tp1411
a(F1487976952.1422141
F1487977025.5574989
tp1412
a(F1487976951.7915061
F1487977035.665704
tp1413
a(F1487976951.9782779
F1487977022.9637511
tp1414
a(F1487976944.9282
F1487977021.8121941
tp1415
a(F1487976953.0763631
F1487977019.2554619
tp1416
a(F1487976952.533879
F1487976998.9592891
tp1417
a(F1487976951.404779
F1487977021.863385
tp1418
a(F1487976944.9243109
F1487976974.7377231
tp1419
a(F1487976945.144042
F1487976978.6824019
tp1420
a(F1487976945.1244881
F1487976985.1944981
tp1421
a(F1487976960.874306
F1487977022.4978011
tp1422
a(F1487976951.944804
F1487977020.563303
tp1423
a(F1487976944.9057419
F1487977020.9369731
tp1424
a(F1487976945.020061
F1487976981.2597511
tp1425
a(F1487976945.0341909
F1487976988.4148841
tp1426
a(F1487976945.0257959
F1487977019.9465289
tp1427
a(F1487976952.3192
F1487977021.5172639
tp1428
a(F1487976952.2051699
F1487977020.447525
tp1429
a(F1487976951.8371971
F1487977021.0353129
tp1430
a(F1487976951.927767
F1487977020.4350359
tp1431
a(F1487976944.9557409
F1487977019.3632159
tp1432
a(F1487976944.982183
F1487976977.2144101
tp1433
a(F1487976945.028188
F1487977025.5311649
tp1434
a(F1487976953.3667901
F1487977003.290659
tp1435
a(F1487976955.600724
F1487977027.2404749
tp1436
a(F1487976952.153744
F1487977021.356457
tp1437
a(F1487976951.7099521
F1487977024.718019
tp1438
a(F1487976945.0450931
F1487977002.120858
tp1439
a(F1487976945.114789
F1487977022.204427
tp1440
a(F1487976945.129487
F1487976986.6397991
tp1441
a(F1487976944.9733379
F1487976989.783417
tp1442
a(F1487976951.3818519
F1487977020.4378569
tp1443
a(F1487976944.9870999
F1487976983.320946
tp1444
a(F1487976945.45433
F1487977002.3642459
tp1445
a(F1487976951.8161831
F1487977021.954654
tp1446
a(F1487976944.957618
F1487977019.213593
tp1447
a(F1487976952.124665
F1487977022.177552
tp1448
a(F1487976945.055603
F1487976983.030647
tp1449
a(F1487976952.0845439
F1487977023.031718
tp1450
a(F1487976951.6563859
F1487976994.044328
tp1451
a(F1487976945.0127211
F1487977019.675756
tp1452
a(F1487976952.1927819
F1487977037.7933481
tp1453
a(F1487976952.5399461
F1487977023.0323319
tp1454
a(F1487976951.839819
F1487977024.1921329
tp1455
a(F1487976945.174017
F1487976984.6769681
tp1456
a(F1487976952.678844
F1487977022.587162
tp1457
a(F1487976945.230335
F1487977000.154511
tp1458
a(F1487976945.2002549
F1487976991.8382649
tp1459
a(F1487976952.1171851
F1487977028.063271
tp1460
a(F1487976952.3270569
F1487977024.5994871
tp1461
a(F1487976952.3397169
F1487977023.712568
tp1462
a(F1487976952.182349
F1487977035.6986251
tp1463
a(F1487976945.295953
F1487977020.457269
tp1464
a(F1487976952.3068681
F1487976995.4469309
tp1465
a(F1487976952.1055689
F1487977002.946311
tp1466
a(F1487976945.2414131
F1487976993.6094749
tp1467
a(F1487976952.4417291
F1487977021.231833
tp1468
a(F1487976945.26038
F1487976980.041213
tp1469
a(F1487976945.4395449
F1487976982.4510901
tp1470
a(F1487976955.60624
F1487977029.8124039
tp1471
a(F1487976945.4183099
F1487976983.3425391
tp1472
a(F1487976945.421731
F1487977022.2301171
tp1473
a(F1487976952.437026
F1487977023.6416581
tp1474
a(F1487976952.3325541
F1487977024.59975
tp1475
a(F1487976945.305927
F1487976983.911829
tp1476
a(F1487976952.486726
F1487977022.205214
tp1477
a(F1487976945.3306799
F1487976980.418575
tp1478
a(F1487976945.326314
F1487976986.563772
tp1479
a(F1487976945.413677
F1487977002.338449
tp1480
a(F1487976945.2934461
F1487977030.8589311
tp1481
a(F1487976952.381912
F1487977020.937767
tp1482
a(F1487976945.375416
F1487976987.390203
tp1483
a(F1487976952.3504441
F1487977024.804117
tp1484
a(F1487976952.3691211
F1487977021.9162941
tp1485
a(F1487976952.718554
F1487977022.1181271
tp1486
a(F1487976945.5187509
F1487977019.6449029
tp1487
a(F1487976951.702045
F1487977004.7136769
tp1488
a(F1487976945.5479269
F1487977001.112725
tp1489
a(F1487976945.4350581
F1487976988.0094941
tp1490
a(F1487976945.493012
F1487977005.109226
tp1491
a(F1487976945.646971
F1487976981.273073
tp1492
a(F1487976945.4463699
F1487976982.537626
tp1493
a(F1487976945.4578071
F1487976990.6795521
tp1494
a(F1487976952.4316349
F1487977022.446346
tp1495
a(F1487976952.888763
F1487977024.2172439
tp1496
a(F1487976946.0693491
F1487976988.279278
tp1497
a(F1487976951.685241
F1487977020.794107
tp1498
a(F1487976945.450315
F1487977019.2630529
tp1499
a(F1487976945.4620049
F1487977007.0799489
tp1500
a(F1487976945.524502
F1487976997.867619
tp1501
a(F1487976945.5206521
F1487977018.8880219
tp1502
a(F1487976952.3601141
F1487977028.398366
tp1503
a(F1487976945.4126749
F1487977019.9021039
tp1504
a(F1487976952.405266
F1487977082.6893251
tp1505
a(F1487976953.233012
F1487977024.3725281
tp1506
a(F1487976953.0182109
F1487977022.1135831
tp1507
a(F1487976945.6463881
F1487976985.9110141
tp1508
a(F1487976945.5637259
F1487976980.447989
tp1509
a(F1487976952.4799719
F1487977005.8936551
tp1510
a(F1487976945.591898
F1487976997.7642109
tp1511
a(F1487976952.6307919
F1487977027.0096011
tp1512
a(F1487976945.6803491
F1487976986.7595401
tp1513
a(F1487976945.89977
F1487976999.2329509
tp1514
a(F1487976952.9977529
F1487977024.3015399
tp1515
a(F1487976952.610095
F1487977023.3077741
tp1516
a(F1487976945.6460299
F1487976996.820859
tp1517
a(F1487976953.1021581
F1487977023.4173219
tp1518
a(F1487976952.901289
F1487977026.011797
tp1519
a(F1487976945.6166351
F1487976984.928762
tp1520
a(F1487976945.729846
F1487976983.1570721
tp1521
a(F1487976945.6713319
F1487976979.6732819
tp1522
a(F1487976952.928216
F1487977024.5433209
tp1523
a(F1487976946.153409
F1487977022.2705419
tp1524
a(F1487976952.703151
F1487977026.7885809
tp1525
a(F1487976945.9228549
F1487976988.2736821
tp1526
a(F1487976945.654706
F1487976981.650702
tp1527
a(F1487976952.3829329
F1487976999.863004
tp1528
a(F1487976951.787904
F1487977021.3018601
tp1529
a(F1487976945.655894
F1487976998.451164
tp1530
a(F1487976945.6989729
F1487976998.986567
tp1531
a(F1487976945.6835141
F1487976985.355195
tp1532
a(F1487976945.665627
F1487976990.8155169
tp1533
a(F1487976945.8416049
F1487976999.3901019
tp1534
a(F1487976945.6855071
F1487976984.9507871
tp1535
a(F1487976945.809099
F1487977027.5358601
tp1536
a(F1487976945.6177249
F1487976984.9436121
tp1537
a(F1487976952.7692721
F1487977024.0032439
tp1538
a(F1487976945.6931391
F1487976980.0219259
tp1539
a(F1487976945.847553
F1487977004.1901441
tp1540
a(F1487976945.688668
F1487976990.7913589
tp1541
a(F1487976945.8916941
F1487976988.9368441
tp1542
a(F1487976945.7637341
F1487976988.6587081
tp1543
a(F1487976945.7347319
F1487977023.91745
tp1544
a(F1487976946.0164609
F1487977023.2658329
tp1545
a(F1487976945.7045369
F1487976995.94631
tp1546
a(F1487976945.796829
F1487977005.8364961
tp1547
a(F1487976945.7569139
F1487976992.689194
tp1548
a(F1487976945.747546
F1487976982.879458
tp1549
a(F1487976945.738476
F1487976989.8539269
tp1550
a(F1487976945.783505
F1487977000.7601759
tp1551
a(F1487976945.8309259
F1487976994.703896
tp1552
a(F1487976945.7138331
F1487976983.7964239
tp1553
a(F1487976945.7526889
F1487976994.8313379
tp1554
a(F1487976945.714468
F1487977022.019356
tp1555
a(F1487976952.6843791
F1487977026.071389
tp1556
a(F1487976945.764293
F1487976983.6927769
tp1557
a(F1487976945.819284
F1487976990.481782
tp1558
a(F1487976945.795176
F1487977025.0565629
tp1559
a(F1487976945.7763309
F1487977021.036166
tp1560
a(F1487976952.994782
F1487977025.800662
tp1561
a(F1487976945.9688001
F1487976999.717036
tp1562
a(F1487976946.4457841
F1487976984.9689829
tp1563
a(F1487976946.025321
F1487976988.628489
tp1564
a(F1487976952.8489189
F1487977021.4257319
tp1565
a(F1487976945.9420371
F1487976990.264334
tp1566
a(F1487976945.9010911
F1487976998.351572
tp1567
a(F1487976945.8518219
F1487977023.590548
tp1568
a(F1487976953.0951469
F1487976999.9107771
tp1569
a(F1487976953.72717
F1487977020.159972
tp1570
a(F1487976946.0720489
F1487976999.9379411
tp1571
a(F1487976946.0001349
F1487976986.8369999
tp1572
a(F1487976946.119673
F1487977021.5995641
tp1573
a(F1487976945.9950149
F1487977000.7858269
tp1574
a(F1487976946.030345
F1487977020.2467151
tp1575
a(F1487976946.5190771
F1487976993.4568441
tp1576
a(F1487976946.165077
F1487976987.493578
tp1577
a(F1487976946.1084969
F1487976994.283886
tp1578
a(F1487976946.043206
F1487976979.7801731
tp1579
a(F1487976946.573061
F1487977003.2396309
tp1580
a(F1487976946.560102
F1487977029.8990941
tp1581
a(F1487976946.0776291
F1487976983.0966921
tp1582
a(F1487976946.22276
F1487976982.600769
tp1583
a(F1487976952.91502
F1487977024.8120351
tp1584
a(F1487976953.0082581
F1487977024.470969
tp1585
a(F1487976946.4206691
F1487977021.403564
tp1586
a(F1487976954.024792
F1487977021.8082421
tp1587
a(F1487976946.3052559
F1487976992.1777461
tp1588
a(F1487976946.1315899
F1487977000.778857
tp1589
a(F1487976946.2024119
F1487976994.452539
tp1590
a(F1487976950.4171491
F1487977020.217741
tp1591
a(F1487976946.170151
F1487976984.664417
tp1592
a(F1487976946.156486
F1487976986.585618
tp1593
a(F1487976952.7346661
F1487977024.044723
tp1594
a(F1487976946.130091
F1487976981.4612081
tp1595
a(F1487976946.4309311
F1487976982.208585
tp1596
a(F1487976976.5888851
F1487977027.306113
tp1597
a(F1487976946.6845701
F1487976992.9230659
tp1598
a(F1487976946.3470809
F1487976980.9376609
tp1599
a(F1487976946.5914781
F1487977026.14625
tp1600
a(F1487976946.2336631
F1487976987.297575
tp1601
a(F1487976946.171859
F1487977020.009959
tp1602
a(F1487976953.5595701
F1487977026.714087
tp1603
a(F1487976953.7804019
F1487977027.944721
tp1604
a(F1487976946.383954
F1487976999.316314
tp1605
a(F1487976946.3410721
F1487977024.6815
tp1606
a(F1487976946.3974891
F1487977019.542021
tp1607
a(F1487976946.8270071
F1487976985.157361
tp1608
a(F1487976946.5038509
F1487977021.7324481
tp1609
a(F1487976946.3371971
F1487976997.698019
tp1610
a(F1487976946.324883
F1487977021.5609491
tp1611
a(F1487976953.07252
F1487977034.038506
tp1612
a(F1487976946.3505099
F1487977018.161485
tp1613
a(F1487976946.369874
F1487977019.2024231
tp1614
a(F1487976946.3066571
F1487976991.0048349
tp1615
a(F1487976953.564285
F1487977022.26004
tp1616
a(F1487976946.2921269
F1487976992.1943281
tp1617
a(F1487976946.3018229
F1487977020.7994001
tp1618
a(F1487976946.4696269
F1487976995.9662459
tp1619
a(F1487976946.5658469
F1487976990.3171339
tp1620
a(F1487976946.401593
F1487976994.760694
tp1621
a(F1487976946.193614
F1487977029.3433681
tp1622
a(F1487976950.9380209
F1487976995.056217
tp1623
a(F1487976953.067555
F1487977022.528863
tp1624
a(F1487976946.2979159
F1487976992.708365
tp1625
a(F1487976946.2692921
F1487977022.3327911
tp1626
a(F1487976946.2303481
F1487976988.5861471
tp1627
a(F1487976946.6147859
F1487977021.1664701
tp1628
a(F1487976946.3525209
F1487976982.1033261
tp1629
a(F1487976946.3773119
F1487976982.422585
tp1630
a(F1487976946.390692
F1487977001.8178761
tp1631
a(F1487976946.406534
F1487976982.329164
tp1632
a(F1487976946.3758659
F1487977025.724684
tp1633
a(F1487976946.429229
F1487976999.267091
tp1634
a(F1487976946.418972
F1487976988.5615411
tp1635
a(F1487976946.4488561
F1487977019.2912829
tp1636
a(F1487976946.503536
F1487977026.3098919
tp1637
a(F1487976946.944571
F1487976994.7189929
tp1638
a(F1487976946.3346059
F1487977000.4022081
tp1639
a(F1487976953.448108
F1487977025.049983
tp1640
a(F1487976946.285851
F1487977023.2181849
tp1641
a(F1487976946.560648
F1487976985.7075591
tp1642
a(F1487976946.603045
F1487977021.767518
tp1643
a(F1487976946.5762129
F1487976982.7496431
tp1644
a(F1487976946.340735
F1487977024.8153319
tp1645
a(F1487976946.5879681
F1487976992.753736
tp1646
a(F1487976946.6023009
F1487977008.1368899
tp1647
a(F1487976946.47509
F1487977018.2235911
tp1648
a(F1487976946.6778481
F1487976996.8221829
tp1649
a(F1487976946.3799119
F1487977001.579859
tp1650
a(F1487976946.510843
F1487977021.2285991
tp1651
a(F1487976946.8471611
F1487976998.401732
tp1652
a(F1487976946.49599
F1487977001.210232
tp1653
a(F1487976952.956023
F1487976997.7366979
tp1654
a(F1487976952.7754469
F1487977001.0768061
tp1655
a(F1487976953.1242099
F1487977020.6997371
tp1656
a(F1487976946.6831391
F1487977068.629668
tp1657
a(F1487976957.2234161
F1487977022.1175699
tp1658
a(F1487976952.5116079
F1487977000.5466499
tp1659
a(F1487976946.792449
F1487977028.676317
tp1660
a(F1487976946.7183721
F1487977042.5714469
tp1661
a(F1487976946.5791421
F1487976992.451705
tp1662
a(F1487976946.583169
F1487977020.4362669
tp1663
a(F1487976946.5760231
F1487977000.6995649
tp1664
a(F1487976946.6753061
F1487976997.952359
tp1665
a(F1487976946.7649641
F1487977023.5137329
tp1666
a(F1487976946.858686
F1487977026.016937
tp1667
a(F1487976946.9324241
F1487977002.8262191
tp1668
a.