(lp1
(F1488230448.733314
F1488230640.794255
tp2
a(F1488230448.636965
F1488230588.711791
tp3
a(F1488230448.7874069
F1488230584.9323969
tp4
a(F1488230448.710273
F1488230602.1564839
tp5
a(F1488230448.7420411
F1488230605.3766091
tp6
a(F1488230448.772743
F1488230610.9955189
tp7
a(F1488230462.3395951
F1488230659.367605
tp8
a(F1488230448.834378
F1488230640.525799
tp9
a(F1488230448.7388649
F1488230602.5401821
tp10
a(F1488230448.9100809
F1488230612.7957439
tp11
a(F1488230450.246726
F1488230643.1964459
tp12
a(F1488230448.6375461
F1488230626.6587191
tp13
a(F1488230448.8253951
F1488230639.2828579
tp14
a(F1488230448.80796
F1488230636.0360751
tp15
a(F1488230448.6170709
F1488230597.7046449
tp16
a(F1488230448.829874
F1488230615.2611971
tp17
a(F1488230448.76337
F1488230602.666054
tp18
a(F1488230448.678977
F1488230611.576576
tp19
a(F1488230448.751941
F1488230628.5924599
tp20
a(F1488230448.8412311
F1488230628.3254099
tp21
a(F1488230462.7572701
F1488230646.1285701
tp22
a(F1488230448.8201621
F1488230641.075321
tp23
a(F1488230448.726191
F1488230608.0777299
tp24
a(F1488230449.0221081
F1488230614.7590909
tp25
a(F1488230464.934984
F1488230690.758678
tp26
a(F1488230448.7302599
F1488230615.181895
tp27
a(F1488230448.865478
F1488230622.1668839
tp28
a(F1488230448.937856
F1488230640.0964301
tp29
a(F1488230448.8474469
F1488230641.5326321
tp30
a(F1488230462.692749
F1488230657.344929
tp31
a(F1488230462.497514
F1488230662.1496971
tp32
a(F1488230449.857305
F1488230595.0126171
tp33
a(F1488230448.6660509
F1488230616.138387
tp34
a(F1488230449.7802939
F1488230612.09918
tp35
a(F1488230448.8388751
F1488230593.1367941
tp36
a(F1488230448.6373141
F1488230609.378402
tp37
a(F1488230463.276273
F1488230648.479605
tp38
a(F1488230462.7304721
F1488230647.356447
tp39
a(F1488230448.8562601
F1488230596.9064419
tp40
a(F1488230448.906549
F1488230640.200274
tp41
a(F1488230462.921454
F1488230647.677716
tp42
a(F1488230462.1652429
F1488230682.493428
tp43
a(F1488230448.806293
F1488230663.9420891
tp44
a(F1488230448.7901449
F1488230602.327064
tp45
a(F1488230448.721987
F1488230655.410079
tp46
a(F1488230449.112329
F1488230635.8389909
tp47
a(F1488230461.965132
F1488230652.8658659
tp48
a(F1488230449.4624519
F1488230635.1406159
tp49
a(F1488230448.755197
F1488230638.014333
tp50
a(F1488230448.7629471
F1488230644.7873721
tp51
a(F1488230448.804558
F1488230644.9779761
tp52
a(F1488230448.7890821
F1488230618.3127501
tp53
a(F1488230448.7313509
F1488230643.460326
tp54
a(F1488230448.7734931
F1488230636.1817601
tp55
a(F1488230448.8564799
F1488230595.9310839
tp56
a(F1488230448.8012061
F1488230611.404453
tp57
a(F1488230448.797801
F1488230613.7203889
tp58
a(F1488230461.8299351
F1488230673.0154741
tp59
a(F1488230448.8386459
F1488230614.2472661
tp60
a(F1488230448.780057
F1488230589.2593729
tp61
a(F1488230462.3253629
F1488230673.3429749
tp62
a(F1488230448.8111081
F1488230601.352648
tp63
a(F1488230462.4470041
F1488230659.5027659
tp64
a(F1488230462.263618
F1488230688.270936
tp65
a(F1488230462.992943
F1488230680.659025
tp66
a(F1488230462.4304359
F1488230662.4680309
tp67
a(F1488230463.4043901
F1488230651.3490601
tp68
a(F1488230464.771188
F1488230651.385309
tp69
a(F1488230462.5991371
F1488230646.8154099
tp70
a(F1488230462.723186
F1488230661.493561
tp71
a(F1488230463.1844251
F1488230660.3470011
tp72
a(F1488230463.068171
F1488230644.4216981
tp73
a(F1488230464.2067649
F1488230707.2796509
tp74
a(F1488230463.165391
F1488230684.0269699
tp75
a(F1488230462.8140609
F1488230649.5355351
tp76
a(F1488230463.78069
F1488230677.9275939
tp77
a(F1488230463.4408901
F1488230691.1861291
tp78
a(F1488230463.579133
F1488230668.2775991
tp79
a(F1488230462.960597
F1488230671.3382461
tp80
a(F1488230463.988889
F1488230689.1793721
tp81
a(F1488230463.9466331
F1488230642.182682
tp82
a(F1488230463.9181211
F1488230663.3305421
tp83
a(F1488230462.8182349
F1488230702.4308619
tp84
a(F1488230462.4029009
F1488230642.7640951
tp85
a(F1488230462.5270729
F1488230661.2783959
tp86
a(F1488230463.0565131
F1488230682.9055071
tp87
a(F1488230463.2705181
F1488230676.9764371
tp88
a(F1488230463.2605441
F1488230675.518122
tp89
a(F1488230462.9561319
F1488230658.500036
tp90
a(F1488230463.623646
F1488230695.9154301
tp91
a(F1488230464.02809
F1488230696.26056
tp92
a(F1488230462.6793001
F1488230654.0508749
tp93
a(F1488230457.741354
F1488230637.8313661
tp94
a(F1488230462.997283
F1488230647.4769361
tp95
a(F1488230463.811446
F1488230663.3232801
tp96
a(F1488230461.3975749
F1488230645.242846
tp97
a(F1488230462.1560481
F1488230648.6426539
tp98
a(F1488230463.1841891
F1488230657.219394
tp99
a(F1488230463.198261
F1488230701.7083721
tp100
a(F1488230463.0306859
F1488230665.8037181
tp101
a(F1488230465.3153689
F1488230655.3248241
tp102
a(F1488230463.087641
F1488230695.7179251
tp103
a(F1488230463.015861
F1488230644.622916
tp104
a(F1488230463.6153331
F1488230645.685395
tp105
a(F1488230463.097301
F1488230658.936106
tp106
a(F1488230462.895529
F1488230643.6877539
tp107
a(F1488230467.4522951
F1488230655.0738909
tp108
a(F1488230463.3474679
F1488230658.210954
tp109
a(F1488230463.1319449
F1488230680.499923
tp110
a(F1488230462.703624
F1488230658.752943
tp111
a(F1488230463.2369289
F1488230664.2097931
tp112
a(F1488230464.309355
F1488230651.0046439
tp113
a(F1488230461.7911019
F1488230638.866502
tp114
a(F1488230462.8748789
F1488230652.7650831
tp115
a(F1488230463.692838
F1488230651.9417679
tp116
a(F1488230463.395823
F1488230654.109251
tp117
a(F1488230462.9267449
F1488230668.6959331
tp118
a(F1488230462.606106
F1488230674.6211281
tp119
a(F1488230462.9788649
F1488230649.3036239
tp120
a(F1488230465.752449
F1488230644.563076
tp121
a(F1488230462.738059
F1488230710.3476479
tp122
a(F1488230462.7880239
F1488230683.2872019
tp123
a(F1488230463.8468471
F1488230669.172174
tp124
a(F1488230469.216557
F1488230672.6560881
tp125
a(F1488230463.6476021
F1488230646.8088379
tp126
a(F1488230463.540307
F1488230683.566221
tp127
a(F1488230464.150872
F1488230695.638957
tp128
a(F1488230462.404654
F1488230696.070673
tp129
a(F1488230462.901839
F1488230670.081511
tp130
a(F1488230460.895992
F1488230651.074425
tp131
a(F1488230464.4878211
F1488230655.776592
tp132
a(F1488230463.8335259
F1488230651.436285
tp133
a(F1488230464.2626059
F1488230648.2442319
tp134
a(F1488230462.9119191
F1488230691.4250989
tp135
a(F1488230463.617671
F1488230647.5202019
tp136
a(F1488230464.3744271
F1488230661.2664731
tp137
a(F1488230449.3990381
F1488230598.325146
tp138
a(F1488230463.123904
F1488230649.039448
tp139
a(F1488230464.3404961
F1488230670.145973
tp140
a(F1488230463.4531381
F1488230643.1228421
tp141
a(F1488230464.635426
F1488230652.5465169
tp142
a(F1488230466.9646831
F1488230663.9521401
tp143
a(F1488230467.2769549
F1488230705.3113749
tp144
a(F1488230462.9473729
F1488230659.0158041
tp145
a(F1488230462.9804969
F1488230665.411473
tp146
a(F1488230463.0058489
F1488230647.3179131
tp147
a(F1488230464.4196219
F1488230651.605262
tp148
a(F1488230464.1097679
F1488230646.0747681
tp149
a(F1488230463.1066129
F1488230646.898
tp150
a(F1488230464.167438
F1488230653.882314
tp151
a(F1488230463.5091801
F1488230659.3425541
tp152
a(F1488230463.235213
F1488230648.074096
tp153
a(F1488230464.53022
F1488230647.0107391
tp154
a(F1488230462.9873011
F1488230701.023134
tp155
a(F1488230464.3157411
F1488230659.021703
tp156
a(F1488230464.0072851
F1488230692.0458529
tp157
a(F1488230464.620898
F1488230656.8873301
tp158
a(F1488230465.440228
F1488230670.5517941
tp159
a(F1488230465.227247
F1488230677.3322041
tp160
a(F1488230463.5303049
F1488230651.803967
tp161
a(F1488230462.6035521
F1488230662.818495
tp162
a(F1488230464.3734739
F1488230682.6440189
tp163
a(F1488230466.5161481
F1488230652.4467821
tp164
a(F1488230463.018153
F1488230657.0576401
tp165
a(F1488230465.00033
F1488230695.0747981
tp166
a(F1488230464.2659299
F1488230659.4248691
tp167
a(F1488230803.4927931
F1488230846.7181489
tp168
a(F1488230464.9268639
F1488230715.125998
tp169
a(F1488230463.884562
F1488230699.389571
tp170
a(F1488230462.4497659
F1488230657.1154921
tp171
a(F1488230463.944505
F1488230656.3334179
tp172
a(F1488230465.4881051
F1488230693.0343471
tp173
a(F1488230465.428767
F1488230652.158159
tp174
a(F1488230463.2286739
F1488230649.1132481
tp175
a(F1488230811.533771
F1488230858.229702
tp176
a(F1488230463.3695359
F1488230642.9777901
tp177
a(F1488230462.0776739
F1488230650.4862499
tp178
a(F1488230464.131181
F1488230648.742197
tp179
a(F1488230463.956893
F1488230665.557698
tp180
a(F1488230464.199415
F1488230668.7362449
tp181
a(F1488230463.709955
F1488230648.9939461
tp182
a(F1488230463.806242
F1488230653.131052
tp183
a(F1488230463.5030489
F1488230689.3673811
tp184
a(F1488230463.6169629
F1488230645.4181981
tp185
a(F1488230463.581248
F1488230654.0042779
tp186
a(F1488230463.370899
F1488230675.231349
tp187
a(F1488230466.533426
F1488230645.8677211
tp188
a(F1488230466.5020471
F1488230658.808609
tp189
a(F1488230463.0522799
F1488230655.825388
tp190
a(F1488230462.9528379
F1488230662.272908
tp191
a(F1488230464.1127989
F1488230651.261076
tp192
a(F1488230463.1352241
F1488230716.2306249
tp193
a(F1488230463.6025791
F1488230676.4142289
tp194
a(F1488230463.4137311
F1488230654.7487249
tp195
a(F1488230463.4932511
F1488230699.077508
tp196
a(F1488230464.134933
F1488230646.6599269
tp197
a(F1488230464.136513
F1488230644.2950349
tp198
a(F1488230464.1430359
F1488230642.178411
tp199
a(F1488230463.753334
F1488230649.7221799
tp200
a(F1488230463.978663
F1488230680.9646051
tp201
a(F1488230463.7219701
F1488230653.813962
tp202
a(F1488230463.1212311
F1488230655.6464939
tp203
a(F1488230463.641999
F1488230661.145756
tp204
a(F1488230464.2394421
F1488230700.106421
tp205
a(F1488230463.775713
F1488230662.7415421
tp206
a(F1488230464.1907661
F1488230649.0384181
tp207
a(F1488230462.752677
F1488230657.5839419
tp208
a(F1488230464.890162
F1488230644.489495
tp209
a(F1488230463.714973
F1488230669.5783319
tp210
a(F1488230463.7063379
F1488230704.7917731
tp211
a(F1488230463.6754761
F1488230700.516988
tp212
a(F1488230467.0830221
F1488230645.5927451
tp213
a(F1488230463.9791491
F1488230648.282042
tp214
a(F1488230464.967984
F1488230698.3270919
tp215
a(F1488230463.939002
F1488230711.4633491
tp216
a(F1488230465.2087181
F1488230684.5115111
tp217
a(F1488230462.9704511
F1488230653.0168259
tp218
a(F1488230463.88205
F1488230643.42471
tp219
a(F1488230463.401504
F1488230657.106895
tp220
a(F1488230464.899431
F1488230643.881582
tp221
a(F1488230463.8800321
F1488230686.3381021
tp222
a(F1488230464.207864
F1488230649.5988979
tp223
a(F1488230464.1613481
F1488230656.3121569
tp224
a(F1488230462.9126079
F1488230662.3553641
tp225
a(F1488230468.2334559
F1488230679.9054019
tp226
a(F1488230464.955786
F1488230656.208504
tp227
a(F1488230464.2918141
F1488230648.1363339
tp228
a(F1488230469.2594261
F1488230657.4796259
tp229
a(F1488230465.2507801
F1488230656.546464
tp230
a(F1488230463.790946
F1488230648.638098
tp231
a(F1488230464.0742879
F1488230656.0741301
tp232
a(F1488230463.7989991
F1488230652.004384
tp233
a(F1488230464.7551301
F1488230642.932996
tp234
a(F1488230466.437042
F1488230664.4280651
tp235
a(F1488230463.416079
F1488230643.0793891
tp236
a(F1488230463.8674359
F1488230655.041517
tp237
a(F1488230464.2254951
F1488230654.012625
tp238
a(F1488230463.5885661
F1488230655.052732
tp239
a(F1488230465.038888
F1488230670.0410049
tp240
a(F1488230463.784349
F1488230659.3571529
tp241
a(F1488230464.3140121
F1488230644.4733181
tp242
a(F1488230463.755672
F1488230654.501081
tp243
a(F1488230463.0443599
F1488230649.209023
tp244
a(F1488230463.960954
F1488230710.1435511
tp245
a(F1488230465.0417891
F1488230672.008764
tp246
a(F1488230465.2348609
F1488230650.4531541
tp247
a(F1488230463.4010651
F1488230659.5825181
tp248
a(F1488230463.923893
F1488230693.3331439
tp249
a(F1488230464.4769919
F1488230652.2124131
tp250
a(F1488230464.14662
F1488230678.8936961
tp251
a(F1488230468.98628
F1488230646.019311
tp252
a(F1488230463.7678461
F1488230670.4471929
tp253
a(F1488230464.0505941
F1488230699.515955
tp254
a(F1488230463.802711
F1488230653.3939791
tp255
a(F1488230464.7558
F1488230693.4581821
tp256
a(F1488230464.1628561
F1488230669.119833
tp257
a(F1488230464.082757
F1488230693.9819851
tp258
a(F1488230464.107116
F1488230664.8661239
tp259
a(F1488230464.284445
F1488230698.4172881
tp260
a(F1488230464.581764
F1488230707.1453061
tp261
a(F1488230464.0127809
F1488230649.261127
tp262
a(F1488230465.6388669
F1488230653.117383
tp263
a(F1488230470.5557649
F1488230684.9907579
tp264
a(F1488230450.132246
F1488230643.980886
tp265
a(F1488230463.980448
F1488230654.6831951
tp266
a(F1488230464.2902639
F1488230662.9152501
tp267
a(F1488230464.7286069
F1488230655.8416109
tp268
a(F1488230463.943166
F1488230673.8561039
tp269
a(F1488230464.7211211
F1488230648.3479271
tp270
a(F1488230463.932121
F1488230664.9199891
tp271
a(F1488230464.912132
F1488230653.5454521
tp272
a(F1488230463.0859351
F1488230654.2517221
tp273
a(F1488230464.0831611
F1488230668.065871
tp274
a(F1488230463.9983411
F1488230642.7608881
tp275
a(F1488230467.0124519
F1488230676.257875
tp276
a(F1488230463.341501
F1488230684.335798
tp277
a(F1488230465.05474
F1488230646.3574319
tp278
a(F1488230469.340312
F1488230664.2657621
tp279
a(F1488230468.0622909
F1488230694.0244651
tp280
a(F1488230464.1366651
F1488230652.6961379
tp281
a(F1488230464.2105441
F1488230647.5668941
tp282
a(F1488230464.39448
F1488230686.243681
tp283
a(F1488230464.589668
F1488230659.1120591
tp284
a(F1488230464.0238609
F1488230695.2827661
tp285
a(F1488230464.0498581
F1488230649.322927
tp286
a(F1488230465.1141009
F1488230642.387774
tp287
a(F1488230469.0640659
F1488230659.828454
tp288
a(F1488230464.247901
F1488230660.3590081
tp289
a(F1488230464.413856
F1488230648.5124309
tp290
a(F1488230463.347656
F1488230701.272728
tp291
a(F1488230464.4034591
F1488230666.426815
tp292
a(F1488230469.3680329
F1488230700.9142699
tp293
a(F1488230464.4437661
F1488230651.2973471
tp294
a(F1488230464.1987131
F1488230643.36027
tp295
a(F1488230464.281616
F1488230679.610714
tp296
a(F1488230465.743691
F1488230649.1977601
tp297
a(F1488230464.0844929
F1488230677.553977
tp298
a(F1488230468.828732
F1488230644.150516
tp299
a(F1488230466.1528151
F1488230649.9396629
tp300
a(F1488230464.258924
F1488230707.95894
tp301
a(F1488230464.288409
F1488230665.553947
tp302
a(F1488230464.398623
F1488230659.9117579
tp303
a(F1488230464.2983699
F1488230670.362253
tp304
a(F1488230464.7116239
F1488230672.2015491
tp305
a(F1488230464.112874
F1488230643.6213269
tp306
a(F1488230464.453078
F1488230647.3212099
tp307
a(F1488230464.5516491
F1488230658.0028291
tp308
a(F1488230464.559387
F1488230646.5477419
tp309
a(F1488230463.9589031
F1488230690.680325
tp310
a(F1488230450.9552031
F1488230616.520932
tp311
a(F1488230467.7548921
F1488230660.2814369
tp312
a(F1488230461.9303639
F1488230695.741745
tp313
a(F1488230462.1751759
F1488230641.6512589
tp314
a(F1488230464.4717331
F1488230690.3435891
tp315
a(F1488230472.5113001
F1488230657.547363
tp316
a(F1488230464.8187189
F1488230685.8215671
tp317
a(F1488230467.861768
F1488230663.7883229
tp318
a(F1488230466.1510789
F1488230658.795356
tp319
a(F1488230463.9951401
F1488230682.457963
tp320
a(F1488230465.3059831
F1488230668.781477
tp321
a(F1488230465.312614
F1488230666.576349
tp322
a(F1488230464.4349151
F1488230653.201025
tp323
a(F1488230465.5779991
F1488230650.8128359
tp324
a(F1488230464.055032
F1488230667.5163341
tp325
a(F1488230465.571547
F1488230664.1896191
tp326
a(F1488230465.363091
F1488230645.2231481
tp327
a(F1488230464.4466839
F1488230666.6904459
tp328
a(F1488230464.3625591
F1488230664.6932139
tp329
a(F1488230467.3923221
F1488230709.729805
tp330
a(F1488230470.907073
F1488230652.121505
tp331
a(F1488230465.1366341
F1488230694.830771
tp332
a(F1488230465.068671
F1488230700.837163
tp333
a(F1488230465.2016971
F1488230665.203788
tp334
a(F1488230464.1280839
F1488230680.215034
tp335
a(F1488230464.4823179
F1488230657.360966
tp336
a(F1488230465.4660981
F1488230683.245755
tp337
a(F1488230464.253696
F1488230687.584116
tp338
a(F1488230465.549979
F1488230667.814749
tp339
a(F1488230464.693845
F1488230705.876873
tp340
a(F1488230464.5863631
F1488230673.2514589
tp341
a(F1488230464.2413449
F1488230651.9436021
tp342
a(F1488230464.7280059
F1488230667.892154
tp343
a(F1488230464.842181
F1488230654.8010731
tp344
a(F1488230466.19455
F1488230658.146065
tp345
a(F1488230467.6773651
F1488230696.2689619
tp346
a(F1488230463.8430669
F1488230645.773926
tp347
a(F1488230464.7499499
F1488230662.7633491
tp348
a(F1488230466.4129159
F1488230664.424823
tp349
a(F1488230464.702117
F1488230653.7610271
tp350
a(F1488230464.819031
F1488230659.2844059
tp351
a(F1488230466.3586991
F1488230661.4568479
tp352
a(F1488230464.797183
F1488230673.237529
tp353
a(F1488230468.362221
F1488230666.6122899
tp354
a(F1488230464.6893921
F1488230665.0048981
tp355
a(F1488230466.478929
F1488230656.3686161
tp356
a(F1488230465.107007
F1488230664.5881259
tp357
a(F1488230464.9131629
F1488230659.297189
tp358
a(F1488230464.197721
F1488230705.321454
tp359
a(F1488230464.6934161
F1488230678.8658581
tp360
a(F1488230465.021775
F1488230649.124651
tp361
a(F1488230463.8321159
F1488230664.6169889
tp362
a(F1488230464.992985
F1488230656.966423
tp363
a(F1488230464.8539751
F1488230677.361217
tp364
a(F1488230464.9803391
F1488230643.8260479
tp365
a(F1488230464.6665311
F1488230659.687952
tp366
a(F1488230468.535306
F1488230669.427762
tp367
a(F1488230464.5675499
F1488230677.906713
tp368
a(F1488230463.9599359
F1488230651.283917
tp369
a(F1488230464.2796049
F1488230652.2276089
tp370
a(F1488230464.907795
F1488230665.0721109
tp371
a(F1488230465.307333
F1488230640.9651661
tp372
a(F1488230464.4549091
F1488230651.3996799
tp373
a(F1488230464.93101
F1488230661.9643109
tp374
a(F1488230465.082243
F1488230649.0409181
tp375
a(F1488230464.019654
F1488230685.9305971
tp376
a(F1488230470.5544729
F1488230646.0329831
tp377
a(F1488230466.776526
F1488230642.4182429
tp378
a(F1488230469.02544
F1488230681.0584159
tp379
a(F1488230465.036834
F1488230699.834312
tp380
a(F1488230466.0292971
F1488230684.997267
tp381
a(F1488230464.78987
F1488230651.8554201
tp382
a(F1488230465.7595019
F1488230661.2009411
tp383
a(F1488230464.8591139
F1488230660.075582
tp384
a(F1488230464.8434501
F1488230659.798892
tp385
a(F1488230470.823673
F1488230670.08162
tp386
a(F1488230465.1379189
F1488230678.9695439
tp387
a(F1488230464.5104001
F1488230646.8488269
tp388
a(F1488230464.6077571
F1488230685.622366
tp389
a(F1488230466.541764
F1488230644.1999769
tp390
a(F1488230465.313693
F1488230651.035965
tp391
a(F1488230465.2844181
F1488230675.21611
tp392
a(F1488230465.4241199
F1488230662.6614561
tp393
a(F1488230467.0704031
F1488230703.7950399
tp394
a(F1488230463.5527401
F1488230677.6160409
tp395
a(F1488230465.3512571
F1488230662.662919
tp396
a(F1488230465.119909
F1488230660.3735349
tp397
a(F1488230464.7632041
F1488230657.071393
tp398
a(F1488230464.6729431
F1488230646.934407
tp399
a(F1488230467.7700739
F1488230652.287956
tp400
a(F1488230465.3944521
F1488230671.474952
tp401
a(F1488230469.4200461
F1488230647.649909
tp402
a(F1488230465.04599
F1488230660.0795989
tp403
a(F1488230465.3250971
F1488230672.322314
tp404
a(F1488230464.245647
F1488230650.168977
tp405
a(F1488230465.1560161
F1488230715.7030599
tp406
a(F1488230465.488812
F1488230657.822875
tp407
a(F1488230465.150609
F1488230650.8891499
tp408
a(F1488230467.8277371
F1488230681.7983739
tp409
a(F1488230465.6239419
F1488230660.2031541
tp410
a(F1488230465.393292
F1488230695.826406
tp411
a(F1488230465.3149149
F1488230660.6182489
tp412
a(F1488230469.5044861
F1488230689.383862
tp413
a(F1488230467.556555
F1488230649.820292
tp414
a(F1488230467.6708629
F1488230667.5543561
tp415
a(F1488230465.17466
F1488230674.2464931
tp416
a(F1488230451.4976611
F1488230619.257524
tp417
a(F1488230465.4103861
F1488230656.793077
tp418
a(F1488230464.9645481
F1488230644.7544949
tp419
a(F1488230464.814738
F1488230680.633074
tp420
a(F1488230465.0108471
F1488230667.180402
tp421
a(F1488230465.649097
F1488230651.2984691
tp422
a(F1488230465.545424
F1488230692.5866449
tp423
a(F1488230465.5871379
F1488230665.23294
tp424
a(F1488230465.124136
F1488230671.765641
tp425
a(F1488230471.635129
F1488230705.6170299
tp426
a(F1488230463.3468511
F1488230662.2275281
tp427
a(F1488230465.3302519
F1488230683.1535211
tp428
a(F1488230464.474704
F1488230659.857368
tp429
a(F1488230465.616796
F1488230672.2730899
tp430
a(F1488230465.465611
F1488230682.329459
tp431
a(F1488230465.3396699
F1488230662.619797
tp432
a(F1488230465.1369431
F1488230669.192414
tp433
a(F1488230465.0062809
F1488230682.606822
tp434
a(F1488230465.3580971
F1488230661.9999199
tp435
a(F1488230465.5209529
F1488230660.364265
tp436
a(F1488230465.287071
F1488230644.517158
tp437
a(F1488230465.5286241
F1488230654.562278
tp438
a(F1488230465.2330501
F1488230703.1068699
tp439
a(F1488230466.2267089
F1488230653.83743
tp440
a(F1488230465.429126
F1488230684.7732551
tp441
a(F1488230465.465426
F1488230671.6941221
tp442
a(F1488230465.3273611
F1488230644.4080379
tp443
a(F1488230466.334341
F1488230687.253279
tp444
a(F1488230465.0360351
F1488230677.4956119
tp445
a(F1488230466.733804
F1488230661.8304999
tp446
a(F1488230466.0859921
F1488230650.07007
tp447
a(F1488230465.756427
F1488230660.938895
tp448
a(F1488230465.5399549
F1488230694.100153
tp449
a(F1488230466.0274899
F1488230645.468533
tp450
a(F1488230465.4239349
F1488230686.492748
tp451
a(F1488230464.8102579
F1488230643.877979
tp452
a(F1488230464.4673109
F1488230694.745162
tp453
a(F1488230465.8925459
F1488230680.986932
tp454
a(F1488230465.9164181
F1488230651.3927579
tp455
a(F1488230465.6579471
F1488230674.5539379
tp456
a(F1488230466.0531199
F1488230654.2896581
tp457
a(F1488230468.3363669
F1488230641.767885
tp458
a(F1488230470.725157
F1488230682.2360439
tp459
a(F1488230465.6228261
F1488230677.9732289
tp460
a(F1488230466.371865
F1488230665.314126
tp461
a(F1488230465.860255
F1488230693.723778
tp462
a(F1488230465.583395
F1488230672.294323
tp463
a(F1488230465.928087
F1488230648.279521
tp464
a(F1488230467.028857
F1488230669.5638809
tp465
a(F1488230465.2708459
F1488230648.3054409
tp466
a(F1488230465.9366679
F1488230660.041795
tp467
a(F1488230466.071949
F1488230672.4964089
tp468
a(F1488230466.5247071
F1488230664.409049
tp469
a(F1488230465.6983981
F1488230660.812602
tp470
a(F1488230467.5152061
F1488230675.7392061
tp471
a(F1488230466.5855989
F1488230647.3464251
tp472
a(F1488230466.109097
F1488230651.336751
tp473
a(F1488230466.267103
F1488230685.6728289
tp474
a(F1488230465.729713
F1488230679.6673551
tp475
a(F1488230468.1474681
F1488230651.901222
tp476
a(F1488230465.6317761
F1488230642.159966
tp477
a(F1488230471.5589919
F1488230658.914453
tp478
a(F1488230465.5822289
F1488230660.7761271
tp479
a(F1488230465.897747
F1488230670.432786
tp480
a(F1488230466.1681681
F1488230650.824192
tp481
a(F1488230466.6254721
F1488230648.6651781
tp482
a(F1488230467.3856261
F1488230686.645678
tp483
a(F1488230467.083395
F1488230672.362632
tp484
a(F1488230452.132556
F1488230652.8838551
tp485
a(F1488230465.943377
F1488230644.582463
tp486
a(F1488230466.9104869
F1488230642.2029719
tp487
a(F1488230466.090157
F1488230702.092294
tp488
a(F1488230465.876061
F1488230653.921505
tp489
a(F1488230465.11937
F1488230662.459949
tp490
a(F1488230466.389823
F1488230653.7074759
tp491
a(F1488230466.1944201
F1488230651.4986019
tp492
a(F1488230466.297435
F1488230672.429533
tp493
a(F1488230466.377722
F1488230647.2621851
tp494
a(F1488230466.1408589
F1488230662.6791661
tp495
a(F1488230467.106504
F1488230652.328701
tp496
a(F1488230465.945389
F1488230646.236778
tp497
a(F1488230466.8410931
F1488230651.4719141
tp498
a(F1488230466.22682
F1488230680.7464349
tp499
a(F1488230466.2180619
F1488230645.2681141
tp500
a(F1488230465.1330259
F1488230659.2636139
tp501
a(F1488230465.8077779
F1488230654.9888129
tp502
a(F1488230465.918376
F1488230701.762934
tp503
a(F1488230466.283525
F1488230685.367624
tp504
a(F1488230465.9834549
F1488230653.744386
tp505
a(F1488230465.99558
F1488230646.5313189
tp506
a(F1488230466.316474
F1488230700.7355511
tp507
a(F1488230466.645431
F1488230651.957077
tp508
a(F1488230466.3439679
F1488230651.9604449
tp509
a(F1488230466.83236
F1488230652.2934179
tp510
a(F1488230466.5083711
F1488230693.76524
tp511
a(F1488230465.646678
F1488230676.7261081
tp512
a(F1488230466.324446
F1488230686.350225
tp513
a(F1488230466.201474
F1488230672.848609
tp514
a(F1488230466.134764
F1488230659.7041841
tp515
a(F1488230466.4659779
F1488230651.1005411
tp516
a(F1488230466.2417071
F1488230683.5701351
tp517
a(F1488230467.0079899
F1488230642.2243271
tp518
a(F1488230464.562659
F1488230669.9232991
tp519
a(F1488230466.353266
F1488230645.801924
tp520
a(F1488230467.6159861
F1488230668.1589961
tp521
a(F1488230466.148216
F1488230659.3755729
tp522
a(F1488230465.825177
F1488230705.704313
tp523
a(F1488230466.0830431
F1488230669.488688
tp524
a(F1488230466.8093419
F1488230651.8573959
tp525
a(F1488230466.430871
F1488230657.414849
tp526
a(F1488230466.9062271
F1488230652.6896451
tp527
a(F1488230466.2025499
F1488230703.1812041
tp528
a(F1488230466.221169
F1488230651.0616391
tp529
a(F1488230466.892575
F1488230678.092232
tp530
a(F1488230466.4606421
F1488230670.655268
tp531
a(F1488230467.314254
F1488230653.789887
tp532
a(F1488230466.087409
F1488230661.550575
tp533
a(F1488230473.448801
F1488230688.1464901
tp534
a(F1488230466.1668601
F1488230695.3912699
tp535
a(F1488230475.3161089
F1488230698.11919
tp536
a(F1488230466.380049
F1488230651.804822
tp537
a(F1488230466.0745089
F1488230684.8802071
tp538
a(F1488230452.596616
F1488230591.61145
tp539
a(F1488230466.4254961
F1488230663.951086
tp540
a(F1488230466.52934
F1488230659.822449
tp541
a(F1488230466.224683
F1488230669.5693719
tp542
a(F1488230466.5716071
F1488230702.739296
tp543
a(F1488230467.836194
F1488230664.3953221
tp544
a(F1488230466.162056
F1488230691.463001
tp545
a(F1488230466.696043
F1488230653.86132
tp546
a(F1488230466.9996719
F1488230711.9166541
tp547
a(F1488230472.2613039
F1488230666.0449951
tp548
a(F1488230466.9881959
F1488230656.64871
tp549
a(F1488230467.744086
F1488230653.5941479
tp550
a(F1488230464.1803541
F1488230657.4274261
tp551
a(F1488230466.594908
F1488230656.2170949
tp552
a(F1488230471.2857831
F1488230643.857296
tp553
a(F1488230467.0081761
F1488230644.476136
tp554
a(F1488230466.26091
F1488230651.876972
tp555
a(F1488230466.9741659
F1488230642.6283121
tp556
a(F1488230471.368155
F1488230670.196023
tp557
a(F1488230466.05006
F1488230654.4046481
tp558
a(F1488230466.1564989
F1488230670.2900839
tp559
a(F1488230467.38678
F1488230646.1889019
tp560
a(F1488230466.8171611
F1488230674.736692
tp561
a(F1488230470.0217459
F1488230651.1826911
tp562
a(F1488230465.5261011
F1488230679.471271
tp563
a(F1488230466.380198
F1488230654.2564759
tp564
a(F1488230467.0766151
F1488230661.258956
tp565
a(F1488230466.140084
F1488230651.53104
tp566
a(F1488230466.5739851
F1488230657.3596611
tp567
a(F1488230466.2549181
F1488230655.147249
tp568
a(F1488230465.915283
F1488230662.2634511
tp569
a(F1488230452.6579969
F1488230640.9069221
tp570
a(F1488230466.6170051
F1488230667.499511
tp571
a(F1488230466.4620841
F1488230695.0455129
tp572
a(F1488230467.877928
F1488230644.9236169
tp573
a(F1488230466.5663359
F1488230658.9025581
tp574
a(F1488230467.2679679
F1488230651.2484641
tp575
a(F1488230472.0337679
F1488230647.144305
tp576
a(F1488230467.8010559
F1488230666.35498
tp577
a(F1488230466.360137
F1488230664.9069099
tp578
a(F1488230466.50247
F1488230641.645607
tp579
a(F1488230466.3951509
F1488230652.119854
tp580
a(F1488230466.6170571
F1488230648.53372
tp581
a(F1488230466.9931719
F1488230693.0049479
tp582
a(F1488230470.8581531
F1488230702.2218261
tp583
a(F1488230466.5542669
F1488230646.753463
tp584
a(F1488230467.604785
F1488230644.8046379
tp585
a(F1488230466.4524591
F1488230671.788904
tp586
a(F1488230466.624146
F1488230652.3307891
tp587
a(F1488230472.2638659
F1488230664.933831
tp588
a(F1488230470.0359969
F1488230695.732305
tp589
a(F1488230466.575875
F1488230644.735352
tp590
a(F1488230467.6374879
F1488230693.1559291
tp591
a(F1488230466.781688
F1488230654.4271419
tp592
a(F1488230466.2694981
F1488230659.441535
tp593
a(F1488230470.686861
F1488230667.993202
tp594
a(F1488230467.881403
F1488230660.3107221
tp595
a(F1488230464.9575591
F1488230658.6290359
tp596
a(F1488230467.261312
F1488230646.255827
tp597
a(F1488230465.984081
F1488230663.2958269
tp598
a(F1488230466.4490509
F1488230657.1613641
tp599
a(F1488230466.5302241
F1488230644.6248741
tp600
a(F1488230466.724653
F1488230670.40955
tp601
a(F1488230467.653496
F1488230655.0956199
tp602
a(F1488230466.7640309
F1488230666.692188
tp603
a(F1488230467.0662551
F1488230655.3792801
tp604
a(F1488230470.1385441
F1488230662.8924301
tp605
a(F1488230467.2322459
F1488230657.2691319
tp606
a(F1488230467.747097
F1488230674.9374969
tp607
a(F1488230467.8290579
F1488230653.9349821
tp608
a(F1488230466.9829929
F1488230704.5387101
tp609
a(F1488230466.4476609
F1488230699.8657479
tp610
a(F1488230466.5583229
F1488230656.175915
tp611
a(F1488230466.692462
F1488230675.561528
tp612
a(F1488230466.920393
F1488230673.083559
tp613
a(F1488230466.982326
F1488230693.6894701
tp614
a(F1488230467.879004
F1488230683.5347011
tp615
a(F1488230466.5948341
F1488230644.5363669
tp616
a(F1488230466.2777021
F1488230675.959837
tp617
a(F1488230469.1507859
F1488230660.2153339
tp618
a(F1488230467.3607261
F1488230664.892683
tp619
a(F1488230467.1336379
F1488230656.6796801
tp620
a(F1488230466.6527901
F1488230672.3285251
tp621
a(F1488230465.248873
F1488230652.209914
tp622
a(F1488230467.283643
F1488230644.4407201
tp623
a(F1488230466.2622111
F1488230665.429096
tp624
a(F1488230466.2926149
F1488230677.9552031
tp625
a(F1488230467.0286291
F1488230646.4554241
tp626
a(F1488230466.6010621
F1488230642.2714131
tp627
a(F1488230466.6330509
F1488230651.9161241
tp628
a(F1488230466.8735211
F1488230666.2940381
tp629
a(F1488230466.3351779
F1488230672.1484301
tp630
a(F1488230466.9896071
F1488230659.4578991
tp631
a(F1488230466.5873439
F1488230662.3282239
tp632
a(F1488230467.0721309
F1488230646.4169431
tp633
a(F1488230468.7772319
F1488230671.4136319
tp634
a(F1488230466.9049339
F1488230662.927181
tp635
a(F1488230469.569917
F1488230644.4673309
tp636
a(F1488230467.037359
F1488230649.7865901
tp637
a(F1488230466.2991731
F1488230698.404799
tp638
a(F1488230467.3189909
F1488230657.8444941
tp639
a(F1488230467.1038179
F1488230703.510174
tp640
a(F1488230467.194135
F1488230653.404376
tp641
a(F1488230466.9531209
F1488230720.0270851
tp642
a(F1488230466.9822171
F1488230656.642627
tp643
a(F1488230466.8413651
F1488230698.123966
tp644
a(F1488230467.1386261
F1488230666.9491749
tp645
a(F1488230466.780014
F1488230643.140779
tp646
a(F1488230467.7384541
F1488230668.507926
tp647
a(F1488230468.4387031
F1488230644.7359951
tp648
a(F1488230453.2417369
F1488230657.3644781
tp649
a(F1488230467.631542
F1488230712.789372
tp650
a(F1488230467.1863389
F1488230698.112113
tp651
a(F1488230466.99804
F1488230655.0752151
tp652
a(F1488230467.407356
F1488230649.7660601
tp653
a(F1488230466.243082
F1488230670.5623741
tp654
a(F1488230466.5854831
F1488230657.4869051
tp655
a(F1488230467.101974
F1488230644.7812271
tp656
a(F1488230467.2172289
F1488230699.9662149
tp657
a(F1488230467.215698
F1488230660.0436389
tp658
a(F1488230466.9699831
F1488230670.9014809
tp659
a(F1488230470.9625289
F1488230695.6375711
tp660
a(F1488230467.4639771
F1488230650.681993
tp661
a(F1488230467.7449651
F1488230655.587132
tp662
a(F1488230467.3638141
F1488230654.8030281
tp663
a(F1488230467.4800949
F1488230644.5232379
tp664
a(F1488230467.9007871
F1488230674.597873
tp665
a(F1488230470.878185
F1488230662.661979
tp666
a(F1488230471.922251
F1488230651.5388031
tp667
a(F1488230467.583966
F1488230693.190809
tp668
a(F1488230466.7276139
F1488230671.985821
tp669
a(F1488230466.9596951
F1488230646.2474301
tp670
a(F1488230453.4623849
F1488230650.470916
tp671
a(F1488230467.1752651
F1488230681.8502181
tp672
a(F1488230467.784801
F1488230666.3966701
tp673
a(F1488230465.85448
F1488230650.8834929
tp674
a(F1488230467.5155849
F1488230643.534899
tp675
a(F1488230467.124285
F1488230653.662842
tp676
a(F1488230467.7189231
F1488230701.0815599
tp677
a(F1488230467.9245789
F1488230646.389894
tp678
a(F1488230467.8554649
F1488230660.2940171
tp679
a(F1488230467.8764911
F1488230651.4234011
tp680
a(F1488230471.777379
F1488230680.9121611
tp681
a(F1488230467.0282891
F1488230677.3935599
tp682
a(F1488230467.5651841
F1488230657.8001659
tp683
a(F1488230467.954299
F1488230675.960561
tp684
a(F1488230467.4489391
F1488230661.8137419
tp685
a(F1488230473.4567201
F1488230694.7312341
tp686
a(F1488230467.4859531
F1488230684.6501861
tp687
a(F1488230467.7771871
F1488230705.017853
tp688
a(F1488230467.6327441
F1488230654.3483241
tp689
a(F1488230467.348712
F1488230643.96137
tp690
a(F1488230467.404767
F1488230669.3629191
tp691
a(F1488230469.9567499
F1488230659.878957
tp692
a(F1488230469.3074031
F1488230685.1200809
tp693
a(F1488230467.9568281
F1488230680.20245
tp694
a(F1488230467.656894
F1488230667.2138579
tp695
a(F1488230467.82936
F1488230654.562753
tp696
a(F1488230467.4758711
F1488230651.5074611
tp697
a(F1488230467.0283239
F1488230649.1857409
tp698
a(F1488230467.6187291
F1488230650.940464
tp699
a(F1488230470.319046
F1488230663.147646
tp700
a(F1488230471.505836
F1488230654.8562479
tp701
a(F1488230467.7025449
F1488230650.575335
tp702
a(F1488230467.8480699
F1488230641.3650751
tp703
a(F1488230467.0910709
F1488230672.4069531
tp704
a(F1488230467.778409
F1488230683.5521519
tp705
a(F1488230468.232548
F1488230654.742887
tp706
a(F1488230467.0467751
F1488230650.161
tp707
a(F1488230468.7216649
F1488230664.3435471
tp708
a(F1488230467.7558279
F1488230644.545795
tp709
a(F1488230470.073983
F1488230687.6045361
tp710
a(F1488230467.8994451
F1488230669.969861
tp711
a(F1488230467.881063
F1488230658.1774249
tp712
a(F1488230467.3864751
F1488230650.064676
tp713
a(F1488230471.9220121
F1488230704.1568911
tp714
a(F1488230469.502598
F1488230646.529367
tp715
a(F1488230467.8320501
F1488230647.411855
tp716
a(F1488230467.2949359
F1488230651.3731761
tp717
a(F1488230468.659375
F1488230644.680645
tp718
a(F1488230467.8712139
F1488230677.7518201
tp719
a(F1488230467.61011
F1488230699.0685551
tp720
a(F1488230468.8338561
F1488230673.0499041
tp721
a(F1488230467.7117181
F1488230677.7658341
tp722
a(F1488230467.41433
F1488230656.2008941
tp723
a(F1488230468.4495611
F1488230645.8669109
tp724
a(F1488230453.811363
F1488230640.615854
tp725
a(F1488230467.0349679
F1488230675.7214041
tp726
a(F1488230470.324887
F1488230687.4013481
tp727
a(F1488230469.143362
F1488230646.044966
tp728
a(F1488230468.159277
F1488230654.3433831
tp729
a(F1488230467.433718
F1488230681.9375341
tp730
a(F1488230467.0741539
F1488230671.3517699
tp731
a(F1488230471.8504381
F1488230657.283576
tp732
a(F1488230467.1674941
F1488230705.1255679
tp733
a(F1488230467.813581
F1488230648.501137
tp734
a(F1488230468.049578
F1488230677.1626461
tp735
a(F1488230468.164952
F1488230702.629673
tp736
a(F1488230467.907495
F1488230660.05457
tp737
a(F1488230468.2762489
F1488230652.5023229
tp738
a(F1488230467.217196
F1488230648.842387
tp739
a(F1488230466.4952681
F1488230685.2073579
tp740
a(F1488230467.992382
F1488230648.13414
tp741
a(F1488230467.857897
F1488230676.4828701
tp742
a(F1488230470.023917
F1488230647.2793789
tp743
a(F1488230467.9049311
F1488230699.961884
tp744
a(F1488230467.584352
F1488230649.1790161
tp745
a(F1488230467.4438679
F1488230655.004792
tp746
a(F1488230467.804085
F1488230700.5034599
tp747
a(F1488230467.5528629
F1488230661.031882
tp748
a(F1488230468.9518919
F1488230652.6834249
tp749
a(F1488230468.4341309
F1488230665.2138791
tp750
a(F1488230471.6199951
F1488230650.324542
tp751
a(F1488230468.514657
F1488230639.7533369
tp752
a(F1488230467.848557
F1488230644.7702401
tp753
a(F1488230471.6921229
F1488230646.8370211
tp754
a(F1488230467.276093
F1488230661.621135
tp755
a(F1488230454.1214869
F1488230639.6670711
tp756
a(F1488230468.3426571
F1488230662.493989
tp757
a(F1488230468.791019
F1488230652.111717
tp758
a(F1488230467.8185699
F1488230718.117233
tp759
a(F1488230468.0719709
F1488230670.5060761
tp760
a(F1488230454.463439
F1488230645.9910159
tp761
a(F1488230468.621135
F1488230685.4742761
tp762
a(F1488230468.870229
F1488230657.1700881
tp763
a(F1488230468.3687079
F1488230668.7335839
tp764
a(F1488230454.3916991
F1488230646.8619339
tp765
a(F1488230468.72842
F1488230641.583235
tp766
a(F1488230468.099663
F1488230675.6022019
tp767
a(F1488230468.160712
F1488230685.9375539
tp768
a(F1488230467.759845
F1488230710.2214069
tp769
a(F1488230468.661624
F1488230674.792881
tp770
a(F1488230470.476459
F1488230654.845767
tp771
a(F1488230468.565942
F1488230681.3763549
tp772
a(F1488230467.5362
F1488230710.661376
tp773
a(F1488230468.2644949
F1488230645.595511
tp774
a(F1488230468.905416
F1488230705.456986
tp775
a(F1488230469.3070049
F1488230655.205719
tp776
a(F1488230467.3054111
F1488230663.4083991
tp777
a(F1488230468.288801
F1488230661.6550131
tp778
a(F1488230467.8033659
F1488230649.042326
tp779
a(F1488230454.5542331
F1488230649.0339229
tp780
a(F1488230468.1589451
F1488230674.381341
tp781
a(F1488230468.5229509
F1488230664.059453
tp782
a(F1488230468.260299
F1488230649.5884681
tp783
a(F1488230468.8460281
F1488230662.8252289
tp784
a(F1488230468.7448959
F1488230699.4372959
tp785
a(F1488230468.535038
F1488230655.19239
tp786
a(F1488230468.19627
F1488230650.5373559
tp787
a(F1488230467.627718
F1488230651.4817669
tp788
a(F1488230468.3893411
F1488230652.56529
tp789
a(F1488230470.5006509
F1488230649.991837
tp790
a(F1488230468.414942
F1488230654.8255429
tp791
a(F1488230467.1654201
F1488230704.8340421
tp792
a(F1488230469.052192
F1488230709.5235381
tp793
a(F1488230466.8626561
F1488230652.7907741
tp794
a(F1488230468.1273191
F1488230709.561615
tp795
a(F1488230468.3507359
F1488230682.3858171
tp796
a(F1488230468.7672911
F1488230677.726706
tp797
a(F1488230469.29247
F1488230684.2252259
tp798
a(F1488230473.4711211
F1488230694.8157101
tp799
a(F1488230468.1663849
F1488230685.2220271
tp800
a(F1488230467.260381
F1488230649.4415591
tp801
a(F1488230471.0183091
F1488230702.724196
tp802
a(F1488230468.5262251
F1488230649.227381
tp803
a(F1488230468.311403
F1488230670.235472
tp804
a(F1488230454.5359581
F1488230668.6589251
tp805
a(F1488230468.6021731
F1488230652.744242
tp806
a(F1488230468.090975
F1488230652.082135
tp807
a(F1488230468.7586391
F1488230672.7704351
tp808
a(F1488230468.2574711
F1488230643.8078749
tp809
a(F1488230468.3938389
F1488230644.0926621
tp810
a(F1488230468.2809491
F1488230664.235781
tp811
a(F1488230470.242234
F1488230697.348089
tp812
a(F1488230455.1614349
F1488230638.4705901
tp813
a(F1488230468.6145539
F1488230672.7652991
tp814
a(F1488230470.386966
F1488230698.5831201
tp815
a(F1488230469.0099261
F1488230674.9890611
tp816
a(F1488230468.5856321
F1488230677.572999
tp817
a(F1488230468.5256701
F1488230651.9008341
tp818
a(F1488230468.5512309
F1488230651.997437
tp819
a(F1488230468.343255
F1488230659.598639
tp820
a(F1488230469.3021979
F1488230690.6056421
tp821
a(F1488230478.8158669
F1488230671.672998
tp822
a(F1488230468.942512
F1488230661.5361619
tp823
a(F1488230468.938961
F1488230652.4585841
tp824
a(F1488230468.517308
F1488230716.1043799
tp825
a(F1488230467.8379681
F1488230698.6473131
tp826
a(F1488230468.7947769
F1488230709.7868669
tp827
a(F1488230468.936774
F1488230651.2443471
tp828
a(F1488230470.4981029
F1488230687.05566
tp829
a(F1488230473.3791549
F1488230642.254554
tp830
a(F1488230468.343663
F1488230647.00281
tp831
a(F1488230468.8500321
F1488230707.227864
tp832
a(F1488230468.7272711
F1488230665.064229
tp833
a(F1488230468.7956259
F1488230654.600163
tp834
a(F1488230468.776655
F1488230652.3062379
tp835
a(F1488230469.8232241
F1488230651.678159
tp836
a(F1488230468.8985729
F1488230646.034905
tp837
a(F1488230487.2840049
F1488230651.137239
tp838
a(F1488230468.8877101
F1488230673.986305
tp839
a(F1488230469.0006001
F1488230646.9582491
tp840
a(F1488230468.708899
F1488230649.7957599
tp841
a(F1488230469.418745
F1488230664.637953
tp842
a(F1488230468.390485
F1488230665.41559
tp843
a(F1488230477.0787289
F1488230646.4517369
tp844
a(F1488230468.303371
F1488230677.8862591
tp845
a(F1488230468.8060901
F1488230667.502969
tp846
a(F1488230470.7749641
F1488230650.025629
tp847
a(F1488230472.8990741
F1488230664.41554
tp848
a(F1488230468.5476329
F1488230646.3663609
tp849
a(F1488230469.233362
F1488230646.306047
tp850
a(F1488230470.666446
F1488230683.8995681
tp851
a(F1488230486.604543
F1488230684.177181
tp852
a(F1488230468.7012529
F1488230652.66152
tp853
a(F1488230470.6128449
F1488230686.344619
tp854
a(F1488230468.7080319
F1488230685.269793
tp855
a(F1488230468.535629
F1488230708.674592
tp856
a(F1488230468.719563
F1488230667.4638851
tp857
a(F1488230468.5881529
F1488230643.8378
tp858
a(F1488230469.514931
F1488230674.7902761
tp859
a(F1488230468.7098689
F1488230708.533371
tp860
a(F1488230468.2805459
F1488230643.511929
tp861
a(F1488230468.294162
F1488230645.7165451
tp862
a(F1488230468.593962
F1488230657.015481
tp863
a(F1488230468.804462
F1488230671.7100501
tp864
a(F1488230474.2756021
F1488230689.5055189
tp865
a(F1488230468.8352001
F1488230705.343399
tp866
a(F1488230469.5150189
F1488230664.20436
tp867
a(F1488230469.0275819
F1488230691.0611639
tp868
a(F1488230468.3295391
F1488230651.0514381
tp869
a(F1488230470.515821
F1488230654.149426
tp870
a(F1488230468.88659
F1488230701.402838
tp871
a(F1488230468.674957
F1488230656.0023949
tp872
a(F1488230469.4519739
F1488230686.0715899
tp873
a(F1488230467.8392439
F1488230706.481153
tp874
a(F1488230471.3946199
F1488230670.4663479
tp875
a(F1488230468.894901
F1488230650.5240481
tp876
a(F1488230468.896224
F1488230642.029314
tp877
a(F1488230470.2409899
F1488230680.605793
tp878
a(F1488230469.1229041
F1488230640.4198389
tp879
a(F1488230469.596127
F1488230670.3357191
tp880
a(F1488230468.956717
F1488230648.034291
tp881
a(F1488230468.9878199
F1488230665.708971
tp882
a(F1488230468.7571559
F1488230665.1159699
tp883
a(F1488230471.714798
F1488230671.936671
tp884
a(F1488230469.1752219
F1488230641.748167
tp885
a(F1488230469.4295981
F1488230677.567399
tp886
a(F1488230469.03739
F1488230709.4266529
tp887
a(F1488230468.6769869
F1488230669.2163789
tp888
a(F1488230470.04844
F1488230668.3469479
tp889
a(F1488230469.0869291
F1488230653.2584691
tp890
a(F1488230469.4897931
F1488230655.9243381
tp891
a(F1488230469.6465969
F1488230648.5917311
tp892
a(F1488230469.02949
F1488230654.8238101
tp893
a(F1488230469.113713
F1488230658.754353
tp894
a(F1488230468.7052231
F1488230652.4401071
tp895
a(F1488230474.7403901
F1488230663.501955
tp896
a(F1488230470.1207769
F1488230672.6691401
tp897
a(F1488230469.4967771
F1488230659.1393709
tp898
a(F1488230467.1696031
F1488230653.34622
tp899
a(F1488230468.9714341
F1488230667.226856
tp900
a(F1488230468.843154
F1488230657.256891
tp901
a(F1488230469.204087
F1488230656.5302711
tp902
a(F1488230469.9466009
F1488230642.8703539
tp903
a(F1488230470.126193
F1488230655.5796039
tp904
a(F1488230470.1773829
F1488230673.5303631
tp905
a(F1488230470.6391599
F1488230655.4708149
tp906
a(F1488230468.9988739
F1488230668.260937
tp907
a(F1488230469.1815839
F1488230678.5548301
tp908
a(F1488230469.6026001
F1488230654.8469789
tp909
a(F1488230469.286567
F1488230691.8679979
tp910
a(F1488230469.6322911
F1488230663.7300589
tp911
a(F1488230469.0978169
F1488230644.925142
tp912
a(F1488230469.2504039
F1488230688.526803
tp913
a(F1488230469.5725131
F1488230643.077008
tp914
a(F1488230470.5755489
F1488230643.8185141
tp915
a(F1488230469.4207489
F1488230659.5468011
tp916
a(F1488230469.016876
F1488230675.099988
tp917
a(F1488230468.9454491
F1488230678.1010311
tp918
a(F1488230469.486414
F1488230715.8728061
tp919
a(F1488230468.676264
F1488230655.488951
tp920
a(F1488230469.68314
F1488230640.5426381
tp921
a(F1488230469.2603941
F1488230649.2146821
tp922
a(F1488230470.8001621
F1488230649.273093
tp923
a(F1488230469.3676929
F1488230659.460398
tp924
a(F1488230469.792068
F1488230644.7496951
tp925
a(F1488230469.5753081
F1488230664.238847
tp926
a(F1488230469.3756039
F1488230664.9727859
tp927
a(F1488230469.2372019
F1488230674.644043
tp928
a(F1488230469.17768
F1488230680.9298129
tp929
a(F1488230474.5300829
F1488230667.162838
tp930
a(F1488230470.858959
F1488230647.315294
tp931
a(F1488230470.69382
F1488230645.4317379
tp932
a(F1488230468.990875
F1488230696.411804
tp933
a(F1488230469.147331
F1488230652.0372519
tp934
a(F1488230469.4808669
F1488230701.1713619
tp935
a(F1488230469.6460459
F1488230706.3260951
tp936
a(F1488230473.7486451
F1488230649.7274611
tp937
a(F1488230470.0576179
F1488230662.394727
tp938
a(F1488230474.9281859
F1488230671.652427
tp939
a(F1488230469.5190289
F1488230644.0989809
tp940
a(F1488230469.2256899
F1488230719.3133259
tp941
a(F1488230469.6175301
F1488230702.6557291
tp942
a(F1488230469.646626
F1488230652.072556
tp943
a(F1488230468.9813731
F1488230661.7311449
tp944
a(F1488230471.0181489
F1488230657.039608
tp945
a(F1488230469.0969329
F1488230701.849056
tp946
a(F1488230469.4163301
F1488230640.8198681
tp947
a(F1488230469.6563981
F1488230703.89167
tp948
a(F1488230469.5440919
F1488230682.597465
tp949
a(F1488230469.600456
F1488230659.3276939
tp950
a(F1488230468.832351
F1488230682.15659
tp951
a(F1488230471.589581
F1488230667.0760241
tp952
a(F1488230468.0776529
F1488230658.927861
tp953
a(F1488230469.13627
F1488230646.091233
tp954
a(F1488230469.2275119
F1488230654.13269
tp955
a(F1488230468.714493
F1488230683.443414
tp956
a(F1488230469.4951911
F1488230656.4400311
tp957
a(F1488230469.9398749
F1488230658.269259
tp958
a(F1488230469.4882779
F1488230657.2115009
tp959
a(F1488230469.6627619
F1488230687.7494969
tp960
a(F1488230469.88238
F1488230646.248049
tp961
a(F1488230469.4190691
F1488230659.0126131
tp962
a(F1488230473.450408
F1488230676.4826009
tp963
a(F1488230469.974694
F1488230672.976536
tp964
a(F1488230474.659734
F1488230693.1104081
tp965
a(F1488230468.697747
F1488230660.650578
tp966
a(F1488230471.4310949
F1488230653.3864961
tp967
a(F1488230470.936727
F1488230646.0110021
tp968
a(F1488230471.787318
F1488230690.241735
tp969
a(F1488230470.343931
F1488230651.300849
tp970
a(F1488230470.2921
F1488230667.613704
tp971
a(F1488230470.310533
F1488230707.753639
tp972
a(F1488230469.7686901
F1488230651.4738021
tp973
a(F1488230470.199847
F1488230671.657239
tp974
a(F1488230469.953918
F1488230654.1690841
tp975
a(F1488230469.3712599
F1488230653.8462551
tp976
a(F1488230470.2429099
F1488230645.6331179
tp977
a(F1488230470.595912
F1488230665.667263
tp978
a(F1488230469.2990341
F1488230658.6935811
tp979
a(F1488230469.3713009
F1488230687.565757
tp980
a(F1488230470.2688689
F1488230658.3524301
tp981
a(F1488230470.197721
F1488230666.5155261
tp982
a(F1488230469.8212819
F1488230675.3384171
tp983
a(F1488230470.0686581
F1488230671.8636069
tp984
a(F1488230470.3687911
F1488230706.1690929
tp985
a(F1488230470.1492889
F1488230642.2404029
tp986
a(F1488230470.3601789
F1488230647.8893299
tp987
a(F1488230469.6609199
F1488230644.069562
tp988
a(F1488230473.6297171
F1488230659.3012249
tp989
a(F1488230470.0109899
F1488230649.0566781
tp990
a(F1488230469.976181
F1488230645.350225
tp991
a(F1488230468.993011
F1488230704.785284
tp992
a(F1488230469.5397489
F1488230658.0866561
tp993
a(F1488230469.8674531
F1488230653.617038
tp994
a(F1488230470.3783469
F1488230649.4256649
tp995
a(F1488230470.238555
F1488230649.7250209
tp996
a(F1488230469.833941
F1488230646.4042809
tp997
a(F1488230470.3930149
F1488230688.7403221
tp998
a(F1488230470.7267931
F1488230665.328105
tp999
a(F1488230470.3984849
F1488230678.488394
tp1000
a(F1488230470.0991991
F1488230647.0606339
tp1001
a(F1488230470.005923
F1488230659.362767
tp1002
a(F1488230470.3240659
F1488230662.0017509
tp1003
a(F1488230475.5435121
F1488230680.7228811
tp1004
a(F1488230469.6302061
F1488230649.5067811
tp1005
a(F1488230469.6337211
F1488230659.197654
tp1006
a(F1488230469.694886
F1488230649.015877
tp1007
a(F1488230470.7010241
F1488230649.9820859
tp1008
a(F1488230470.4455011
F1488230646.950151
tp1009
a(F1488230470.3013029
F1488230669.1335919
tp1010
a(F1488230469.8764379
F1488230678.464783
tp1011
a(F1488230469.5433121
F1488230642.3173721
tp1012
a(F1488230470.080821
F1488230658.139169
tp1013
a(F1488230470.1360121
F1488230652.1446631
tp1014
a(F1488230469.6037309
F1488230652.043534
tp1015
a(F1488230469.834321
F1488230714.776042
tp1016
a(F1488230470.1150889
F1488230654.5394609
tp1017
a(F1488230472.3916759
F1488230714.122931
tp1018
a(F1488230469.9993949
F1488230695.659694
tp1019
a(F1488230470.565829
F1488230649.66765
tp1020
a(F1488230474.5344241
F1488230675.0840521
tp1021
a(F1488230470.5952849
F1488230702.1711669
tp1022
a(F1488230471.415122
F1488230665.562758
tp1023
a(F1488230470.478529
F1488230641.6911409
tp1024
a(F1488230470.15552
F1488230677.129051
tp1025
a(F1488230470.269424
F1488230692.9096749
tp1026
a(F1488230470.6849589
F1488230653.3339109
tp1027
a(F1488230471.4606869
F1488230654.3027921
tp1028
a(F1488230470.0114641
F1488230653.1461749
tp1029
a(F1488230471.5032721
F1488230654.8919661
tp1030
a(F1488230470.8466921
F1488230668.569277
tp1031
a(F1488230470.674047
F1488230667.5021789
tp1032
a(F1488230471.020782
F1488230646.310554
tp1033
a(F1488230470.44015
F1488230663.4216549
tp1034
a(F1488230470.765084
F1488230659.1926351
tp1035
a(F1488230470.7167189
F1488230705.1341889
tp1036
a(F1488230470.39059
F1488230651.8609431
tp1037
a(F1488230471.334239
F1488230697.4790959
tp1038
a(F1488230470.692302
F1488230646.512069
tp1039
a(F1488230470.6173689
F1488230644.536432
tp1040
a(F1488230471.0183189
F1488230657.3051319
tp1041
a(F1488230473.8705161
F1488230699.9175539
tp1042
a(F1488230470.3899341
F1488230688.894906
tp1043
a(F1488230470.8198659
F1488230647.1458371
tp1044
a(F1488230469.9032919
F1488230648.974844
tp1045
a(F1488230474.238894
F1488230648.6913221
tp1046
a(F1488230471.47469
F1488230666.558461
tp1047
a(F1488230469.9725671
F1488230672.0236199
tp1048
a(F1488230470.1614759
F1488230644.0310941
tp1049
a(F1488230470.2735159
F1488230643.5769441
tp1050
a(F1488230470.3034589
F1488230700.224582
tp1051
a(F1488230470.8730431
F1488230651.017942
tp1052
a(F1488230470.029851
F1488230668.394321
tp1053
a(F1488230471.004956
F1488230646.4455719
tp1054
a(F1488230470.4825499
F1488230651.7369881
tp1055
a(F1488230470.4057369
F1488230644.0008891
tp1056
a(F1488230470.791147
F1488230681.029798
tp1057
a(F1488230469.680084
F1488230649.753798
tp1058
a(F1488230470.506201
F1488230677.777904
tp1059
a(F1488230475.053997
F1488230646.50541
tp1060
a(F1488230470.71503
F1488230649.846487
tp1061
a(F1488230471.943536
F1488230664.5970571
tp1062
a(F1488230471.8369529
F1488230689.1638629
tp1063
a(F1488230470.568208
F1488230669.3591709
tp1064
a(F1488230471.318115
F1488230649.4050591
tp1065
a(F1488230469.9209039
F1488230672.7722909
tp1066
a(F1488230470.380156
F1488230674.3026631
tp1067
a(F1488230470.0250261
F1488230659.6706431
tp1068
a(F1488230470.739579
F1488230651.9428151
tp1069
a(F1488230470.7942719
F1488230658.1823561
tp1070
a(F1488230471.0521319
F1488230660.3686609
tp1071
a(F1488230470.4237771
F1488230647.7539029
tp1072
a(F1488230469.9057209
F1488230653.4503181
tp1073
a(F1488230470.60497
F1488230654.7599161
tp1074
a(F1488230470.4658301
F1488230643.7875011
tp1075
a(F1488230470.544163
F1488230644.613065
tp1076
a(F1488230470.473402
F1488230660.612756
tp1077
a(F1488230470.1831291
F1488230660.226099
tp1078
a(F1488230471.473407
F1488230671.5707691
tp1079
a(F1488230470.8183041
F1488230658.718811
tp1080
a(F1488230469.8127961
F1488230655.5290949
tp1081
a(F1488230471.0320289
F1488230653.048188
tp1082
a(F1488230470.354233
F1488230674.854284
tp1083
a(F1488230472.503226
F1488230650.0822661
tp1084
a(F1488230471.0764871
F1488230705.3259039
tp1085
a(F1488230470.4715869
F1488230713.3320899
tp1086
a(F1488230469.9076929
F1488230656.910104
tp1087
a(F1488230470.7267849
F1488230671.4587409
tp1088
a(F1488230471.6972761
F1488230665.723727
tp1089
a(F1488230470.4929259
F1488230664.1004961
tp1090
a(F1488230471.06622
F1488230657.0172341
tp1091
a(F1488230471.3823619
F1488230678.2690439
tp1092
a(F1488230471.2514091
F1488230671.9267001
tp1093
a(F1488230471.543184
F1488230672.985172
tp1094
a(F1488230470.923779
F1488230667.0812631
tp1095
a(F1488230471.603754
F1488230643.3090079
tp1096
a(F1488230470.937912
F1488230644.7211201
tp1097
a(F1488230471.4611299
F1488230644.788909
tp1098
a(F1488230472.017925
F1488230689.0097899
tp1099
a(F1488230471.055613
F1488230657.853734
tp1100
a(F1488230471.014241
F1488230654.4420691
tp1101
a(F1488230470.6064129
F1488230667.086488
tp1102
a(F1488230470.868592
F1488230666.2801199
tp1103
a(F1488230470.892566
F1488230680.3375461
tp1104
a(F1488230470.3124931
F1488230653.786685
tp1105
a(F1488230470.917335
F1488230656.0426371
tp1106
a(F1488230471.2936289
F1488230650.93418
tp1107
a(F1488230470.6501801
F1488230676.9296191
tp1108
a(F1488230470.8684559
F1488230652.663801
tp1109
a(F1488230470.8278241
F1488230667.2830601
tp1110
a(F1488230471.357677
F1488230644.811687
tp1111
a(F1488230471.319396
F1488230644.359736
tp1112
a(F1488230471.7698131
F1488230657.7089911
tp1113
a(F1488230472.423559
F1488230650.959281
tp1114
a(F1488230470.6270089
F1488230653.0181701
tp1115
a(F1488230470.299057
F1488230655.655484
tp1116
a(F1488230471.3413119
F1488230671.620326
tp1117
a(F1488230472.8380649
F1488230644.602422
tp1118
a(F1488230471.601732
F1488230715.5611429
tp1119
a(F1488230471.4600799
F1488230643.6456311
tp1120
a(F1488230471.189554
F1488230661.5550289
tp1121
a(F1488230481.548151
F1488230653.572114
tp1122
a(F1488230471.1152921
F1488230660.1420519
tp1123
a(F1488230470.914937
F1488230699.7454829
tp1124
a(F1488230471.572809
F1488230653.9786241
tp1125
a(F1488230471.4908781
F1488230694.5347569
tp1126
a(F1488230471.359272
F1488230644.8626649
tp1127
a(F1488230470.491699
F1488230645.053817
tp1128
a(F1488230471.4799111
F1488230708.5855391
tp1129
a(F1488230471.293906
F1488230646.3379841
tp1130
a(F1488230470.953047
F1488230697.1256101
tp1131
a(F1488230470.6974211
F1488230644.783139
tp1132
a(F1488230470.340374
F1488230660.4860361
tp1133
a(F1488230472.3824439
F1488230662.639766
tp1134
a(F1488230471.963408
F1488230659.6475849
tp1135
a(F1488230472.683641
F1488230641.3516791
tp1136
a(F1488230471.133373
F1488230666.1769199
tp1137
a(F1488230476.1165509
F1488230643.099431
tp1138
a(F1488230475.757395
F1488230676.6660919
tp1139
a(F1488230472.4427421
F1488230707.7779939
tp1140
a(F1488230472.2875791
F1488230674.024416
tp1141
a(F1488230470.629524
F1488230684.1300969
tp1142
a(F1488230471.0889831
F1488230657.606539
tp1143
a(F1488230471.4684131
F1488230655.2626641
tp1144
a(F1488230470.2063401
F1488230643.213634
tp1145
a(F1488230471.009402
F1488230643.155549
tp1146
a(F1488230475.4537439
F1488230660.220654
tp1147
a(F1488230471.1524279
F1488230669.2577569
tp1148
a(F1488230470.941782
F1488230688.9202709
tp1149
a(F1488230469.2239571
F1488230640.3669629
tp1150
a(F1488230474.643527
F1488230706.952234
tp1151
a(F1488230471.4632089
F1488230664.8114641
tp1152
a(F1488230471.2251711
F1488230649.8972559
tp1153
a(F1488230471.3033791
F1488230647.3276429
tp1154
a(F1488230471.4570651
F1488230645.911227
tp1155
a(F1488230470.6716011
F1488230644.0689809
tp1156
a(F1488230472.1312201
F1488230654.532522
tp1157
a(F1488230469.133554
F1488230656.13608
tp1158
a(F1488230472.358443
F1488230649.165894
tp1159
a(F1488230470.177273
F1488230654.6856689
tp1160
a(F1488230471.917608
F1488230656.693018
tp1161
a(F1488230471.3671031
F1488230652.091316
tp1162
a(F1488230470.9102089
F1488230651.2164409
tp1163
a(F1488230471.405102
F1488230678.599381
tp1164
a(F1488230471.1378331
F1488230658.364413
tp1165
a(F1488230471.517015
F1488230654.926271
tp1166
a(F1488230471.331326
F1488230685.393204
tp1167
a(F1488230476.514262
F1488230654.534909
tp1168
a(F1488230471.15644
F1488230646.945611
tp1169
a(F1488230471.5622799
F1488230712.2323461
tp1170
a(F1488230471.360389
F1488230675.3522489
tp1171
a(F1488230471.284971
F1488230649.3962369
tp1172
a(F1488230475.651633
F1488230704.3387539
tp1173
a(F1488230476.263303
F1488230715.7597251
tp1174
a(F1488230471.7478931
F1488230675.634105
tp1175
a(F1488230471.6957071
F1488230647.456795
tp1176
a(F1488230472.0214939
F1488230662.1988139
tp1177
a(F1488230472.092696
F1488230643.0276339
tp1178
a(F1488230471.4423699
F1488230645.989378
tp1179
a(F1488230471.947031
F1488230684.240263
tp1180
a(F1488230471.3760829
F1488230680.779007
tp1181
a(F1488230471.8255539
F1488230662.3872991
tp1182
a(F1488230472.84004
F1488230691.7057321
tp1183
a(F1488230472.571141
F1488230645.881423
tp1184
a(F1488230472.7925191
F1488230660.0049839
tp1185
a(F1488230472.805711
F1488230680.678633
tp1186
a(F1488230471.223171
F1488230670.17996
tp1187
a(F1488230471.834594
F1488230652.590693
tp1188
a(F1488230471.5495579
F1488230646.9856529
tp1189
a(F1488230471.1489971
F1488230653.3805039
tp1190
a(F1488230471.3219399
F1488230656.57038
tp1191
a(F1488230471.200886
F1488230646.527045
tp1192
a(F1488230472.217062
F1488230676.9672179
tp1193
a(F1488230471.1246181
F1488230657.492605
tp1194
a(F1488230471.798979
F1488230662.2269859
tp1195
a(F1488230471.4363649
F1488230663.801008
tp1196
a(F1488230471.3980341
F1488230653.9204841
tp1197
a(F1488230474.946099
F1488230649.3216169
tp1198
a(F1488230471.364212
F1488230649.1051929
tp1199
a(F1488230472.22648
F1488230652.1378059
tp1200
a(F1488230472.1465471
F1488230714.828397
tp1201
a(F1488230471.362041
F1488230678.2728469
tp1202
a(F1488230472.075098
F1488230696.1231289
tp1203
a(F1488230472.0744159
F1488230649.8773479
tp1204
a(F1488230471.7350061
F1488230652.604877
tp1205
a(F1488230472.6140361
F1488230662.6617949
tp1206
a(F1488230472.9533999
F1488230659.8217151
tp1207
a(F1488230476.6217029
F1488230659.0600569
tp1208
a(F1488230471.1176591
F1488230654.501945
tp1209
a(F1488230471.6765471
F1488230659.960217
tp1210
a(F1488230471.692611
F1488230650.86076
tp1211
a(F1488230471.8396411
F1488230685.9311371
tp1212
a(F1488230473.4678831
F1488230650.291002
tp1213
a(F1488230471.9884369
F1488230696.7703509
tp1214
a(F1488230472.293103
F1488230660.1622219
tp1215
a(F1488230471.5294631
F1488230700.750798
tp1216
a(F1488230471.7309599
F1488230675.6672249
tp1217
a(F1488230472.1740539
F1488230680.5811679
tp1218
a(F1488230471.7404971
F1488230657.5840499
tp1219
a(F1488230471.6583259
F1488230716.1842861
tp1220
a(F1488230471.6424911
F1488230658.5746911
tp1221
a(F1488230471.5128469
F1488230691.4291649
tp1222
a(F1488230471.6332021
F1488230653.1673639
tp1223
a(F1488230473.0649681
F1488230649.7906439
tp1224
a(F1488230475.189841
F1488230649.198561
tp1225
a(F1488230472.200331
F1488230677.5905399
tp1226
a(F1488230471.669167
F1488230669.198487
tp1227
a(F1488230482.820173
F1488230660.7412939
tp1228
a(F1488230471.717484
F1488230645.6686959
tp1229
a(F1488230472.2351661
F1488230654.9638159
tp1230
a(F1488230476.4741409
F1488230689.620012
tp1231
a(F1488230471.5086
F1488230678.0683041
tp1232
a(F1488230471.3399949
F1488230651.939333
tp1233
a(F1488230471.51718
F1488230663.7888589
tp1234
a(F1488230471.8583701
F1488230649.7895789
tp1235
a(F1488230472.680196
F1488230662.2411759
tp1236
a(F1488230472.2100849
F1488230689.751991
tp1237
a(F1488230472.717716
F1488230674.658726
tp1238
a(F1488230471.851887
F1488230667.800662
tp1239
a(F1488230472.45261
F1488230669.0867519
tp1240
a(F1488230470.7716961
F1488230652.8931291
tp1241
a(F1488230471.683816
F1488230715.477416
tp1242
a(F1488230475.6250291
F1488230647.1424429
tp1243
a(F1488230473.0200369
F1488230651.7283571
tp1244
a(F1488230471.7448709
F1488230660.1860411
tp1245
a(F1488230471.7750771
F1488230657.729918
tp1246
a(F1488230471.789588
F1488230656.086405
tp1247
a(F1488230471.7530971
F1488230654.7273221
tp1248
a(F1488230472.4860799
F1488230677.7521119
tp1249
a(F1488230473.3734291
F1488230646.5839131
tp1250
a(F1488230472.0574379
F1488230680.717308
tp1251
a(F1488230472.5191081
F1488230706.7102489
tp1252
a(F1488230471.8548441
F1488230657.24279
tp1253
a(F1488230472.318758
F1488230659.4836669
tp1254
a(F1488230471.929877
F1488230644.4725521
tp1255
a(F1488230472.05901
F1488230644.428916
tp1256
a(F1488230472.2294061
F1488230666.135741
tp1257
a(F1488230471.7646329
F1488230669.604116
tp1258
a(F1488230471.9909339
F1488230665.7228689
tp1259
a(F1488230472.4591
F1488230672.4090359
tp1260
a(F1488230472.2982819
F1488230655.690207
tp1261
a(F1488230472.547231
F1488230645.7345979
tp1262
a(F1488230472.8318889
F1488230716.684979
tp1263
a(F1488230473.391243
F1488230644.7348881
tp1264
a(F1488230471.6718659
F1488230651.9639139
tp1265
a(F1488230472.2840719
F1488230647.2322531
tp1266
a(F1488230472.5622749
F1488230701.0140691
tp1267
a(F1488230472.574441
F1488230700.9761231
tp1268
a(F1488230471.9699359
F1488230648.9984269
tp1269
a(F1488230471.6766241
F1488230685.6630521
tp1270
a(F1488230471.9510169
F1488230665.081373
tp1271
a(F1488230471.923347
F1488230662.526237
tp1272
a(F1488230471.6190701
F1488230652.0882461
tp1273
a(F1488230472.38111
F1488230694.206212
tp1274
a(F1488230472.1823809
F1488230669.536988
tp1275
a(F1488230474.1126311
F1488230651.451143
tp1276
a(F1488230471.978368
F1488230660.1730211
tp1277
a(F1488230472.1082871
F1488230664.8446679
tp1278
a(F1488230474.181303
F1488230689.263314
tp1279
a(F1488230472.2296679
F1488230648.843725
tp1280
a(F1488230468.6753891
F1488230648.770195
tp1281
a(F1488230472.547477
F1488230658.5478499
tp1282
a(F1488230472.0339291
F1488230651.25229
tp1283
a(F1488230472.0922589
F1488230659.164041
tp1284
a(F1488230473.923281
F1488230657.4110701
tp1285
a(F1488230471.914696
F1488230666.8248761
tp1286
a(F1488230472.075824
F1488230672.0445361
tp1287
a(F1488230472.47593
F1488230644.4814839
tp1288
a(F1488230472.2545919
F1488230646.3098619
tp1289
a(F1488230472.6570101
F1488230645.5053999
tp1290
a(F1488230472.4599659
F1488230655.0022681
tp1291
a(F1488230473.005012
F1488230660.077481
tp1292
a(F1488230472.3455241
F1488230688.3995259
tp1293
a(F1488230472.0835509
F1488230662.3276329
tp1294
a(F1488230472.4612889
F1488230664.8319831
tp1295
a(F1488230473.472682
F1488230677.2774
tp1296
a(F1488230472.8894589
F1488230659.311475
tp1297
a(F1488230472.4167531
F1488230704.9585111
tp1298
a(F1488230472.339268
F1488230644.3195
tp1299
a(F1488230473.738364
F1488230659.450424
tp1300
a(F1488230472.9727859
F1488230647.2083769
tp1301
a(F1488230471.903765
F1488230661.505784
tp1302
a(F1488230473.2274151
F1488230654.8144679
tp1303
a(F1488230472.4069331
F1488230655.436465
tp1304
a(F1488230473.71207
F1488230662.502502
tp1305
a(F1488230472.1487229
F1488230675.0567739
tp1306
a(F1488230472.306179
F1488230646.4013751
tp1307
a(F1488230472.4000621
F1488230663.3881159
tp1308
a(F1488230471.8597491
F1488230683.422749
tp1309
a(F1488230472.5256619
F1488230695.588383
tp1310
a(F1488230472.946589
F1488230643.3245361
tp1311
a(F1488230478.099165
F1488230654.8536351
tp1312
a(F1488230471.9510469
F1488230650.611587
tp1313
a(F1488230473.5762761
F1488230669.0681601
tp1314
a(F1488230471.9972439
F1488230655.7680211
tp1315
a(F1488230473.6258321
F1488230692.174293
tp1316
a(F1488230472.696722
F1488230651.5389161
tp1317
a(F1488230472.7755799
F1488230658.569819
tp1318
a(F1488230473.903353
F1488230651.3736391
tp1319
a(F1488230472.0542369
F1488230667.9426439
tp1320
a(F1488230472.7738349
F1488230703.751719
tp1321
a(F1488230472.306459
F1488230678.0367739
tp1322
a(F1488230472.544193
F1488230706.1845939
tp1323
a(F1488230474.9521129
F1488230648.5589719
tp1324
a(F1488230472.440217
F1488230648.8540249
tp1325
a(F1488230473.0899539
F1488230670.4233651
tp1326
a(F1488230474.471529
F1488230684.7910261
tp1327
a(F1488230476.999202
F1488230652.7988181
tp1328
a(F1488230472.4228361
F1488230646.1040759
tp1329
a(F1488230472.4751561
F1488230654.010119
tp1330
a(F1488230471.6811681
F1488230706.311172
tp1331
a(F1488230477.1500471
F1488230707.862582
tp1332
a(F1488230473.406585
F1488230664.2435839
tp1333
a(F1488230472.0710981
F1488230686.2514091
tp1334
a(F1488230472.4746871
F1488230664.987222
tp1335
a(F1488230474.2100401
F1488230685.7557769
tp1336
a(F1488230473.0757799
F1488230648.780236
tp1337
a(F1488230479.6167941
F1488230651.1382599
tp1338
a(F1488230473.303817
F1488230679.54722
tp1339
a(F1488230472.688798
F1488230648.4075789
tp1340
a(F1488230473.1823709
F1488230653.8385291
tp1341
a(F1488230472.6906929
F1488230684.892385
tp1342
a(F1488230472.99194
F1488230646.2126451
tp1343
a(F1488230472.8702641
F1488230651.2776041
tp1344
a(F1488230470.415534
F1488230677.337338
tp1345
a(F1488230473.249378
F1488230663.7666681
tp1346
a(F1488230472.9594951
F1488230696.949682
tp1347
a(F1488230473.4019101
F1488230662.3871801
tp1348
a(F1488230473.014169
F1488230652.404742
tp1349
a(F1488230473.5400579
F1488230677.8562729
tp1350
a(F1488230473.081737
F1488230653.9554751
tp1351
a(F1488230472.3449709
F1488230645.870805
tp1352
a(F1488230472.3930509
F1488230692.596668
tp1353
a(F1488230473.0515549
F1488230688.8180439
tp1354
a(F1488230473.0097339
F1488230679.4944069
tp1355
a(F1488230472.583148
F1488230656.7821939
tp1356
a(F1488230473.3422649
F1488230653.0094061
tp1357
a(F1488230473.0293961
F1488230656.8989129
tp1358
a(F1488230475.6828101
F1488230651.474865
tp1359
a(F1488230473.073282
F1488230698.5315089
tp1360
a(F1488230472.84848
F1488230678.657793
tp1361
a(F1488230472.9383571
F1488230651.513238
tp1362
a(F1488230473.182174
F1488230657.5909879
tp1363
a(F1488230473.452497
F1488230672.8272281
tp1364
a(F1488230473.04265
F1488230671.5245891
tp1365
a(F1488230474.1404619
F1488230693.7596719
tp1366
a(F1488230472.5507939
F1488230704.7442279
tp1367
a(F1488230474.812875
F1488230704.4405
tp1368
a(F1488230473.2744229
F1488230719.538733
tp1369
a(F1488230474.092092
F1488230710.8001571
tp1370
a(F1488230473.1747849
F1488230644.1709161
tp1371
a(F1488230472.0327189
F1488230686.3539031
tp1372
a(F1488230474.026727
F1488230675.7606881
tp1373
a(F1488230473.376025
F1488230662.2640841
tp1374
a(F1488230475.7824581
F1488230652.4577069
tp1375
a(F1488230473.005789
F1488230647.7189939
tp1376
a(F1488230477.5639329
F1488230709.079169
tp1377
a(F1488230472.5951929
F1488230647.0706861
tp1378
a(F1488230473.302124
F1488230674.7964499
tp1379
a(F1488230472.861932
F1488230712.1618321
tp1380
a(F1488230473.5024991
F1488230644.398685
tp1381
a(F1488230474.0066271
F1488230652.0401981
tp1382
a(F1488230472.9050541
F1488230656.0207911
tp1383
a(F1488230647.3569009
F1488230725.923104
tp1384
a(F1488230474.175401
F1488230684.2030699
tp1385
a(F1488230472.74072
F1488230649.0540731
tp1386
a(F1488230472.9874899
F1488230709.293798
tp1387
a(F1488230472.551722
F1488230662.4024169
tp1388
a(F1488230473.1820779
F1488230659.511626
tp1389
a(F1488230473.0986271
F1488230661.4414711
tp1390
a(F1488230473.2199819
F1488230679.8570759
tp1391
a(F1488230473.5342791
F1488230655.7431719
tp1392
a(F1488230472.722312
F1488230653.4231081
tp1393
a(F1488230479.6992681
F1488230663.9396379
tp1394
a(F1488230473.353683
F1488230670.1413071
tp1395
a(F1488230473.311738
F1488230651.523463
tp1396
a(F1488230473.1817069
F1488230672.23365
tp1397
a(F1488230473.5655811
F1488230661.1772521
tp1398
a(F1488230473.5131431
F1488230663.555644
tp1399
a(F1488230474.533782
F1488230685.3679171
tp1400
a(F1488230473.4477439
F1488230696.992414
tp1401
a(F1488230473.578702
F1488230661.409493
tp1402
a(F1488230473.8098471
F1488230714.2318411
tp1403
a(F1488230473.387569
F1488230663.6826539
tp1404
a(F1488230473.437521
F1488230652.207969
tp1405
a(F1488230474.4264159
F1488230690.033282
tp1406
a(F1488230473.8447599
F1488230643.1475191
tp1407
a(F1488230473.0204489
F1488230661.6763501
tp1408
a(F1488230472.8119121
F1488230665.432549
tp1409
a(F1488230473.930403
F1488230651.0071399
tp1410
a(F1488230473.9196179
F1488230654.428375
tp1411
a(F1488230474.2766161
F1488230660.7263279
tp1412
a(F1488230472.2844191
F1488230641.8323519
tp1413
a(F1488230484.726562
F1488230677.0240719
tp1414
a(F1488230472.5775549
F1488230644.53719
tp1415
a(F1488230471.8032031
F1488230647.475394
tp1416
a(F1488230473.9660499
F1488230694.780582
tp1417
a(F1488230474.0956011
F1488230669.421699
tp1418
a(F1488230474.890389
F1488230679.526391
tp1419
a(F1488230473.9583681
F1488230645.6903951
tp1420
a(F1488230474.1043129
F1488230715.8874841
tp1421
a(F1488230475.388325
F1488230644.1775529
tp1422
a(F1488230474.9636099
F1488230688.828882
tp1423
a(F1488230477.800813
F1488230690.8076229
tp1424
a(F1488230473.629416
F1488230649.093621
tp1425
a(F1488230474.7701261
F1488230676.744978
tp1426
a(F1488230473.4376881
F1488230649.2824609
tp1427
a(F1488230474.6755071
F1488230651.0414481
tp1428
a(F1488230473.293426
F1488230645.306654
tp1429
a(F1488230484.908937
F1488230645.9084051
tp1430
a(F1488230473.46369
F1488230689.6591151
tp1431
a(F1488230474.4311571
F1488230674.7136509
tp1432
a(F1488230473.8237419
F1488230648.7337799
tp1433
a(F1488230473.5031109
F1488230652.6283801
tp1434
a(F1488230474.684829
F1488230666.829406
tp1435
a(F1488230473.7452309
F1488230665.175817
tp1436
a(F1488230478.89766
F1488230676.909451
tp1437
a(F1488230472.1951139
F1488230642.3315339
tp1438
a(F1488230476.4588301
F1488230649.796535
tp1439
a(F1488230473.3689139
F1488230669.644413
tp1440
a(F1488230473.793937
F1488230670.2032781
tp1441
a(F1488230473.7820671
F1488230644.9845691
tp1442
a(F1488230473.4729841
F1488230670.914746
tp1443
a(F1488230473.5446961
F1488230656.4957621
tp1444
a(F1488230473.272661
F1488230646.49949
tp1445
a(F1488230472.791225
F1488230647.0347791
tp1446
a(F1488230473.119472
F1488230669.133868
tp1447
a(F1488230473.1625099
F1488230693.5590711
tp1448
a(F1488230477.0377071
F1488230689.9905951
tp1449
a(F1488230473.9954591
F1488230657.105593
tp1450
a(F1488230474.3784089
F1488230654.409425
tp1451
a(F1488230475.6201811
F1488230679.4045119
tp1452
a(F1488230473.4419789
F1488230691.8511729
tp1453
a(F1488230473.9823339
F1488230717.1392419
tp1454
a(F1488230472.9384279
F1488230715.297775
tp1455
a(F1488230473.6566031
F1488230644.6938951
tp1456
a(F1488230474.044529
F1488230689.858974
tp1457
a(F1488230473.390291
F1488230673.090384
tp1458
a(F1488230474.058218
F1488230648.9325249
tp1459
a(F1488230476.290092
F1488230686.3524849
tp1460
a(F1488230474.2428379
F1488230654.0508101
tp1461
a(F1488230475.986953
F1488230719.5953569
tp1462
a(F1488230474.4193709
F1488230660.0613279
tp1463
a(F1488230473.2917631
F1488230661.9489601
tp1464
a(F1488230474.0603819
F1488230684.8033929
tp1465
a(F1488230473.7789991
F1488230671.7687099
tp1466
a(F1488230473.9032011
F1488230677.571084
tp1467
a(F1488230474.068337
F1488230655.0831671
tp1468
a(F1488230474.0699179
F1488230645.8697431
tp1469
a(F1488230473.8797519
F1488230656.931155
tp1470
a(F1488230473.7750559
F1488230696.0107751
tp1471
a(F1488230474.899426
F1488230641.82287
tp1472
a(F1488230472.580235
F1488230659.620451
tp1473
a(F1488230473.925554
F1488230653.7771361
tp1474
a(F1488230473.797966
F1488230656.707078
tp1475
a(F1488230473.9592869
F1488230675.226094
tp1476
a(F1488230473.7846329
F1488230658.91435
tp1477
a(F1488230474.1334081
F1488230650.669208
tp1478
a(F1488230473.5701721
F1488230689.9749141
tp1479
a(F1488230474.4422259
F1488230648.592437
tp1480
a(F1488230474.3971629
F1488230664.679935
tp1481
a(F1488230473.828084
F1488230713.5942149
tp1482
a(F1488230473.320472
F1488230666.1760931
tp1483
a(F1488230473.926487
F1488230659.609462
tp1484
a(F1488230474.1959569
F1488230655.8674531
tp1485
a(F1488230475.031481
F1488230703.2884181
tp1486
a(F1488230474.5858071
F1488230669.4508901
tp1487
a(F1488230474.5638089
F1488230667.311806
tp1488
a(F1488230474.153863
F1488230657.452213
tp1489
a(F1488230474.1025851
F1488230672.5207689
tp1490
a(F1488230473.8653941
F1488230661.3831141
tp1491
a(F1488230474.0491631
F1488230656.153271
tp1492
a(F1488230474.368943
F1488230646.6309791
tp1493
a(F1488230475.4295609
F1488230671.261548
tp1494
a(F1488230474.397841
F1488230654.8968201
tp1495
a(F1488230474.2145
F1488230651.9233799
tp1496
a(F1488230473.672401
F1488230658.443197
tp1497
a(F1488230474.2415371
F1488230641.2335939
tp1498
a(F1488230476.5168619
F1488230653.023735
tp1499
a(F1488230473.823662
F1488230648.6862919
tp1500
a(F1488230476.5456431
F1488230646.582938
tp1501
a(F1488230475.0355589
F1488230641.97177
tp1502
a(F1488230474.94894
F1488230711.1916609
tp1503
a(F1488230474.696523
F1488230653.145267
tp1504
a(F1488230477.017674
F1488230678.671402
tp1505
a(F1488230475.6182129
F1488230686.10324
tp1506
a(F1488230473.594939
F1488230667.846962
tp1507
a(F1488230476.097903
F1488230688.903651
tp1508
a(F1488230474.175379
F1488230668.8985829
tp1509
a(F1488230474.9494491
F1488230715.5081511
tp1510
a(F1488230474.1780131
F1488230673.6213291
tp1511
a(F1488230474.4535949
F1488230651.713434
tp1512
a(F1488230476.0589421
F1488230662.304563
tp1513
a(F1488230474.0282531
F1488230643.6752861
tp1514
a(F1488230472.6719961
F1488230660.997117
tp1515
a(F1488230475.0098
F1488230662.699996
tp1516
a(F1488230474.365741
F1488230655.753819
tp1517
a(F1488230474.6217771
F1488230663.8207669
tp1518
a(F1488230473.5407269
F1488230654.473906
tp1519
a(F1488230474.5285461
F1488230650.446044
tp1520
a(F1488230473.752902
F1488230656.2925789
tp1521
a(F1488230472.6916859
F1488230659.6296289
tp1522
a(F1488230474.584527
F1488230697.3808081
tp1523
a(F1488230474.088753
F1488230646.2495661
tp1524
a(F1488230475.404098
F1488230646.715694
tp1525
a(F1488230474.4582851
F1488230653.4110639
tp1526
a(F1488230474.293638
F1488230643.733259
tp1527
a(F1488230475.20134
F1488230652.0364139
tp1528
a(F1488230478.2002449
F1488230644.202657
tp1529
a(F1488230474.374609
F1488230674.805655
tp1530
a(F1488230474.5983269
F1488230642.9723511
tp1531
a(F1488230475.0915229
F1488230654.7632389
tp1532
a(F1488230475.315299
F1488230661.3330059
tp1533
a(F1488230475.5707209
F1488230662.1679311
tp1534
a(F1488230474.3896849
F1488230648.3837731
tp1535
a(F1488230475.0784831
F1488230652.348412
tp1536
a(F1488230474.9854929
F1488230664.008637
tp1537
a(F1488230473.9976821
F1488230694.5127499
tp1538
a(F1488230474.7472961
F1488230650.1607649
tp1539
a(F1488230475.0165169
F1488230647.054671
tp1540
a(F1488230474.5184319
F1488230705.0870211
tp1541
a(F1488230474.1650319
F1488230649.5955651
tp1542
a(F1488230475.4650409
F1488230662.7708671
tp1543
a(F1488230474.4826031
F1488230692.7621031
tp1544
a(F1488230474.591476
F1488230656.065537
tp1545
a(F1488230474.505049
F1488230670.072897
tp1546
a(F1488230474.352771
F1488230646.760344
tp1547
a(F1488230474.875849
F1488230669.6361899
tp1548
a(F1488230476.0309319
F1488230657.5331659
tp1549
a(F1488230474.6878259
F1488230656.3861749
tp1550
a(F1488230474.4395101
F1488230651.6593931
tp1551
a(F1488230475.1441591
F1488230706.803956
tp1552
a(F1488230474.9770961
F1488230672.460923
tp1553
a(F1488230475.57952
F1488230661.7458611
tp1554
a(F1488230474.280334
F1488230651.896405
tp1555
a(F1488230475.0709169
F1488230643.4666581
tp1556
a(F1488230474.5510099
F1488230654.5399549
tp1557
a(F1488230486.240325
F1488230666.8462059
tp1558
a(F1488230475.02738
F1488230690.406178
tp1559
a(F1488230474.1825981
F1488230649.5478201
tp1560
a(F1488230474.8484521
F1488230697.979583
tp1561
a(F1488230475.0899529
F1488230662.300386
tp1562
a(F1488230474.976665
F1488230659.144875
tp1563
a(F1488230478.6004701
F1488230702.6121299
tp1564
a(F1488230474.849349
F1488230680.1327591
tp1565
a(F1488230475.8502381
F1488230661.4509599
tp1566
a(F1488230475.8304391
F1488230646.0777409
tp1567
a(F1488230474.3317139
F1488230661.8959141
tp1568
a(F1488230475.1806321
F1488230701.8956361
tp1569
a(F1488230474.8689649
F1488230661.8507071
tp1570
a(F1488230475.261858
F1488230662.3550789
tp1571
a(F1488230474.4877291
F1488230656.161324
tp1572
a(F1488230474.6327491
F1488230716.1226649
tp1573
a(F1488230476.1916471
F1488230659.7938261
tp1574
a(F1488230479.5634091
F1488230650.362998
tp1575
a(F1488230475.769033
F1488230690.1160209
tp1576
a(F1488230475.8442111
F1488230646.8810279
tp1577
a(F1488230474.771863
F1488230710.6755741
tp1578
a(F1488230478.007292
F1488230685.4292991
tp1579
a(F1488230474.9058621
F1488230664.0329239
tp1580
a(F1488230475.466857
F1488230656.6601701
tp1581
a(F1488230474.9956069
F1488230666.7883461
tp1582
a(F1488230474.730201
F1488230672.782366
tp1583
a(F1488230475.237555
F1488230651.5847881
tp1584
a(F1488230474.76368
F1488230650.9498861
tp1585
a(F1488230474.9119699
F1488230648.9381499
tp1586
a(F1488230474.895293
F1488230653.682683
tp1587
a(F1488230475.0744801
F1488230676.682656
tp1588
a(F1488230475.353111
F1488230702.341428
tp1589
a(F1488230474.971319
F1488230657.0796001
tp1590
a(F1488230476.278671
F1488230705.1166911
tp1591
a(F1488230475.269058
F1488230703.7134769
tp1592
a(F1488230475.1739099
F1488230669.799335
tp1593
a(F1488230475.3802929
F1488230657.5439799
tp1594
a(F1488230475.1202109
F1488230642.7503071
tp1595
a(F1488230475.1723859
F1488230657.9020691
tp1596
a(F1488230477.891336
F1488230651.938494
tp1597
a(F1488230486.3957651
F1488230683.0185671
tp1598
a(F1488230476.37556
F1488230669.859751
tp1599
a(F1488230470.58023
F1488230688.052851
tp1600
a(F1488230475.3321581
F1488230656.9017479
tp1601
a(F1488230475.307807
F1488230674.8515749
tp1602
a(F1488230474.8950441
F1488230642.2700939
tp1603
a(F1488230475.675024
F1488230649.4554851
tp1604
a(F1488230475.1184461
F1488230667.4615769
tp1605
a(F1488230478.932112
F1488230675.120095
tp1606
a(F1488230475.1590819
F1488230688.064172
tp1607
a(F1488230475.0772619
F1488230649.020813
tp1608
a(F1488230476.421068
F1488230685.6575329
tp1609
a(F1488230475.7812171
F1488230649.2667379
tp1610
a(F1488230475.6249869
F1488230703.263288
tp1611
a(F1488230474.0556331
F1488230649.1992669
tp1612
a(F1488230475.3404801
F1488230646.4939539
tp1613
a(F1488230476.1609409
F1488230647.8650849
tp1614
a(F1488230475.894521
F1488230672.549536
tp1615
a(F1488230475.482415
F1488230665.09531
tp1616
a(F1488230470.294239
F1488230649.1473501
tp1617
a(F1488230475.2403281
F1488230672.5065391
tp1618
a(F1488230475.471766
F1488230645.713083
tp1619
a(F1488230475.5858929
F1488230688.1194699
tp1620
a(F1488230470.795692
F1488230655.6455109
tp1621
a(F1488230474.195013
F1488230644.9904051
tp1622
a(F1488230476.844449
F1488230659.0736611
tp1623
a(F1488230470.2108109
F1488230642.1473219
tp1624
a(F1488230475.670511
F1488230679.901232
tp1625
a(F1488230476.1813021
F1488230658.957525
tp1626
a(F1488230475.8211269
F1488230686.526444
tp1627
a(F1488230476.385735
F1488230702.751827
tp1628
a(F1488230470.4155519
F1488230677.292865
tp1629
a(F1488230476.1309531
F1488230721.5662379
tp1630
a(F1488230475.9558051
F1488230651.519654
tp1631
a(F1488230477.631228
F1488230652.279825
tp1632
a(F1488230475.5766661
F1488230646.9991629
tp1633
a(F1488230487.3822501
F1488230692.714148
tp1634
a(F1488230476.729013
F1488230667.2295909
tp1635
a(F1488230472.792387
F1488230713.062809
tp1636
a(F1488230475.495579
F1488230645.9756889
tp1637
a(F1488230475.4700551
F1488230675.572387
tp1638
a(F1488230479.5622311
F1488230715.149029
tp1639
a(F1488230476.6882589
F1488230648.5485239
tp1640
a(F1488230476.5643899
F1488230664.1946051
tp1641
a(F1488230475.7574821
F1488230680.3031671
tp1642
a(F1488230475.8271151
F1488230653.0757539
tp1643
a(F1488230470.5954161
F1488230678.2929111
tp1644
a(F1488230470.6665061
F1488230669.599443
tp1645
a(F1488230475.673737
F1488230664.6360259
tp1646
a(F1488230476.360985
F1488230646.1288869
tp1647
a(F1488230470.3676131
F1488230677.057071
tp1648
a(F1488230475.0934319
F1488230659.168539
tp1649
a(F1488230475.3116789
F1488230676.6217189
tp1650
a(F1488230470.3487451
F1488230646.0520461
tp1651
a(F1488230476.6345429
F1488230664.021728
tp1652
a(F1488230474.8840001
F1488230678.1130159
tp1653
a(F1488230475.9779849
F1488230650.6169219
tp1654
a(F1488230475.7437041
F1488230646.543184
tp1655
a(F1488230475.056241
F1488230667.443249
tp1656
a(F1488230475.3698599
F1488230652.303719
tp1657
a(F1488230475.489584
F1488230649.9005871
tp1658
a(F1488230470.5714951
F1488230660.222945
tp1659
a(F1488230476.428256
F1488230661.105099
tp1660
a(F1488230476.332325
F1488230654.2511449
tp1661
a(F1488230477.500855
F1488230650.0696039
tp1662
a(F1488230472.5915599
F1488230686.7493329
tp1663
a(F1488230476.4198611
F1488230689.7187841
tp1664
a(F1488230476.484401
F1488230651.923665
tp1665
a(F1488230475.0950041
F1488230642.905452
tp1666
a(F1488230471.0177269
F1488230669.2948201
tp1667
a(F1488230475.674614
F1488230662.022239
tp1668
a.