(lp1
(F1487928611.770998
F1487928658.558517
tp2
a(F1487928611.7201941
F1487928710.68503
tp3
a(F1487928611.6372349
F1487928736.9893341
tp4
a(F1487928611.890558
F1487928655.6290331
tp5
a(F1487928612.304899
F1487928698.82812
tp6
a(F1487928611.8966579
F1487928667.550848
tp7
a(F1487928611.5281711
F1487928682.1397951
tp8
a(F1487928611.660147
F1487928655.8883619
tp9
a(F1487928611.5818329
F1487928690.8961389
tp10
a(F1487928611.9339111
F1487928663.011483
tp11
a(F1487928611.7165699
F1487928715.2499149
tp12
a(F1487928611.5966539
F1487928668.252512
tp13
a(F1487928611.87623
F1487928674.048173
tp14
a(F1487928611.7656529
F1487928647.016005
tp15
a(F1487928611.7234991
F1487928671.2361989
tp16
a(F1487928611.592984
F1487928649.279489
tp17
a(F1487928611.5834451
F1487928675.108876
tp18
a(F1487928611.8514431
F1487928670.3285489
tp19
a(F1487928611.5328059
F1487928660.971977
tp20
a(F1487928611.7636991
F1487928721.8027151
tp21
a(F1487928611.4729331
F1487928664.334204
tp22
a(F1487928611.660147
F1487928730.00458
tp23
a(F1487928612.1403749
F1487928688.6890299
tp24
a(F1487928611.7130859
F1487928664.5100019
tp25
a(F1487928611.6457331
F1487928662.5399239
tp26
a(F1487928611.485976
F1487928669.413415
tp27
a(F1487928611.443871
F1487928678.439028
tp28
a(F1487928611.983393
F1487928654.3237741
tp29
a(F1487928611.7147281
F1487928681.835798
tp30
a(F1487928611.692486
F1487928700.112927
tp31
a(F1487928611.7613881
F1487928705.7696731
tp32
a(F1487928611.522079
F1487928685.231338
tp33
a(F1487928611.8038609
F1487928697.2451291
tp34
a(F1487928611.4176641
F1487928677.6086609
tp35
a(F1487928611.819066
F1487928655.5967629
tp36
a(F1487928611.8174739
F1487928661.435252
tp37
a(F1487928611.471102
F1487928679.6211331
tp38
a(F1487928611.5764771
F1487928679.712127
tp39
a(F1487928611.490361
F1487928684.305706
tp40
a(F1487928611.6423459
F1487928681.812506
tp41
a(F1487928611.5556171
F1487928645.761297
tp42
a(F1487928611.7669179
F1487928689.853534
tp43
a(F1487928611.470448
F1487928696.52843
tp44
a(F1487928611.6435969
F1487928651.240484
tp45
a(F1487928611.718061
F1487928685.4324629
tp46
a(F1487928611.5157299
F1487928687.354008
tp47
a(F1487928611.5836251
F1487928781.3555789
tp48
a(F1487928611.718972
F1487928682.6748331
tp49
a(F1487928611.765671
F1487928784.2924609
tp50
a(F1487928611.600358
F1487928683.462163
tp51
a(F1487928611.873651
F1487928656.6805019
tp52
a(F1487928611.65218
F1487928654.3826189
tp53
a(F1487928612.1201849
F1487928675.3736839
tp54
a(F1487928611.666039
F1487928666.6828179
tp55
a(F1487928611.556133
F1487928680.5705121
tp56
a(F1487928611.672503
F1487928705.896234
tp57
a(F1487928611.6934299
F1487928670.401243
tp58
a(F1487928611.7311909
F1487928776.1324661
tp59
a(F1487928611.652133
F1487928685.156215
tp60
a(F1487928611.5028391
F1487928671.8085771
tp61
a(F1487928611.912884
F1487928660.6509919
tp62
a(F1487928611.831152
F1487928681.0899079
tp63
a(F1487928611.6052301
F1487928687.467649
tp64
a(F1487928613.058224
F1487928762.3928771
tp65
a(F1487928611.657362
F1487928659.985363
tp66
a(F1487928611.8165381
F1487928664.770839
tp67
a(F1487928611.7758851
F1487928666.992779
tp68
a(F1487928611.8557479
F1487928692.410717
tp69
a(F1487928611.7572989
F1487928680.501297
tp70
a(F1487928611.8175039
F1487928677.288213
tp71
a(F1487928612.1069739
F1487928688.488023
tp72
a(F1487928611.89325
F1487928671.2389281
tp73
a(F1487928611.9577849
F1487928676.391253
tp74
a(F1487928612.5140581
F1487928691.344012
tp75
a(F1487928611.8874271
F1487928722.595844
tp76
a(F1487928611.989424
F1487928673.0572791
tp77
a(F1487928611.9577751
F1487928683.877183
tp78
a(F1487928612.1273701
F1487928677.9092529
tp79
a(F1487928611.8373461
F1487928668.2161839
tp80
a(F1487928612.1086471
F1487928664.9906471
tp81
a(F1487928612.027648
F1487928700.72732
tp82
a(F1487928612.0952499
F1487928694.292562
tp83
a(F1487928612.072659
F1487928661.2908249
tp84
a(F1487928612.081846
F1487928658.2215281
tp85
a(F1487928612.3178539
F1487928680.1310279
tp86
a(F1487928612.7987709
F1487928782.908958
tp87
a(F1487928612.1083429
F1487928730.3779869
tp88
a(F1487928612.101619
F1487928681.2914071
tp89
a(F1487928612.009608
F1487928684.791652
tp90
a(F1487928612.4441359
F1487928667.2604711
tp91
a(F1487928612.075485
F1487928700.873204
tp92
a(F1487928612.0503099
F1487928667.0470641
tp93
a(F1487928612.0014589
F1487928766.6449389
tp94
a(F1487928612.205349
F1487928695.1403069
tp95
a(F1487928612.1853991
F1487928667.966126
tp96
a(F1487928612.0763891
F1487928666.8107359
tp97
a(F1487928612.079855
F1487928651.750829
tp98
a(F1487928612.123867
F1487928653.462436
tp99
a(F1487928612.116298
F1487928686.8955989
tp100
a(F1487928612.2611439
F1487928646.7543321
tp101
a(F1487928612.05439
F1487928674.8174591
tp102
a(F1487928612.0479901
F1487928672.5482321
tp103
a(F1487928612.1821949
F1487928672.095592
tp104
a(F1487928612.151407
F1487928705.9321799
tp105
a(F1487928612.0240171
F1487928688.234026
tp106
a(F1487928612.1417329
F1487928674.0168359
tp107
a(F1487928612.0930891
F1487928661.468462
tp108
a(F1487928612.1419799
F1487928707.1306601
tp109
a(F1487928612.3869979
F1487928665.9879079
tp110
a(F1487928612.107883
F1487928694.9851351
tp111
a(F1487928612.1932671
F1487928676.961081
tp112
a(F1487928612.1305771
F1487928649.8831379
tp113
a(F1487928612.1994231
F1487928670.8060081
tp114
a(F1487928611.9197381
F1487928653.272259
tp115
a(F1487928617.900398
F1487928685.6280079
tp116
a(F1487928612.249912
F1487928702.4326129
tp117
a(F1487928612.256597
F1487928667.2997479
tp118
a(F1487928612.1974699
F1487928670.3979149
tp119
a(F1487928612.305124
F1487928694.906424
tp120
a(F1487928612.52689
F1487928648.6656699
tp121
a(F1487928612.4269321
F1487928679.1515419
tp122
a(F1487928612.3044269
F1487928728.3124089
tp123
a(F1487928612.1978071
F1487928732.3410461
tp124
a(F1487928613.489048
F1487928665.868988
tp125
a(F1487928612.270576
F1487928687.782053
tp126
a(F1487928612.3986671
F1487928685.06932
tp127
a(F1487928612.5472651
F1487928694.4652569
tp128
a(F1487928612.2358279
F1487928719.6677151
tp129
a(F1487928612.2725329
F1487928727.413821
tp130
a(F1487928612.4286959
F1487928785.3656969
tp131
a(F1487928612.9922199
F1487928657.170208
tp132
a(F1487928613.808042
F1487928663.197886
tp133
a(F1487928612.418417
F1487928688.786288
tp134
a(F1487928612.50735
F1487928740.468884
tp135
a(F1487928613.4726801
F1487928756.669241
tp136
a(F1487928612.52544
F1487928660.1233599
tp137
a(F1487928612.6443069
F1487928672.729279
tp138
a(F1487928612.2042949
F1487928666.48435
tp139
a(F1487928612.2606549
F1487928673.12185
tp140
a(F1487928612.4555809
F1487928652.3526969
tp141
a(F1487928612.321985
F1487928709.430598
tp142
a(F1487928612.393306
F1487928675.0198951
tp143
a(F1487928612.39413
F1487928713.709918
tp144
a(F1487928612.5680411
F1487928667.526041
tp145
a(F1487928612.442071
F1487928709.2082901
tp146
a(F1487928612.5254731
F1487928677.4339249
tp147
a(F1487928612.5817921
F1487928734.9094341
tp148
a(F1487928612.2169721
F1487928663.5892529
tp149
a(F1487928612.3313961
F1487928681.005404
tp150
a(F1487928612.9062121
F1487928680.945545
tp151
a(F1487928617.740123
F1487928676.0065241
tp152
a(F1487928612.9030969
F1487928680.9811809
tp153
a(F1487928613.034765
F1487928665.917027
tp154
a(F1487928612.7317891
F1487928662.3566489
tp155
a(F1487928612.6434419
F1487928661.0794761
tp156
a(F1487928612.391531
F1487928688.7575121
tp157
a(F1487928612.8869801
F1487928704.012845
tp158
a(F1487928612.81143
F1487928672.0579009
tp159
a(F1487928617.8541629
F1487928665.4170599
tp160
a(F1487928612.4361551
F1487928671.780658
tp161
a(F1487928612.5316379
F1487928723.8120689
tp162
a(F1487928612.7652581
F1487928650.4618571
tp163
a(F1487928612.893409
F1487928756.8096349
tp164
a(F1487928612.4800341
F1487928697.4687259
tp165
a(F1487928612.4407811
F1487928660.7429199
tp166
a(F1487928612.460938
F1487928665.8429041
tp167
a(F1487928613.0188179
F1487928645.2276609
tp168
a(F1487928612.4017739
F1487928681.741071
tp169
a(F1487928612.576586
F1487928710.6245739
tp170
a(F1487928612.5097971
F1487928696.7026899
tp171
a(F1487928619.1562901
F1487928671.209136
tp172
a(F1487928612.5345349
F1487928660.1045179
tp173
a(F1487928612.485724
F1487928687.241502
tp174
a(F1487928619.8193369
F1487928710.548522
tp175
a(F1487928619.7812729
F1487928659.2666769
tp176
a(F1487928612.6156991
F1487928676.725184
tp177
a(F1487928612.495693
F1487928662.8969581
tp178
a(F1487928612.3586061
F1487928778.8729661
tp179
a(F1487928612.465765
F1487928713.131691
tp180
a(F1487928613.0397129
F1487928671.527447
tp181
a(F1487928612.5981679
F1487928720.016258
tp182
a(F1487928612.7364049
F1487928668.67575
tp183
a(F1487928612.4277971
F1487928649.953733
tp184
a(F1487928612.80336
F1487928683.415839
tp185
a(F1487928612.887639
F1487928647.819658
tp186
a(F1487928620.3456891
F1487928714.867909
tp187
a(F1487928613.681715
F1487928711.6157949
tp188
a(F1487928620.1989119
F1487928649.1031001
tp189
a(F1487928613.814755
F1487928694.6122811
tp190
a(F1487928613.4976189
F1487928662.267828
tp191
a(F1487928612.780606
F1487928655.502985
tp192
a(F1487928612.82376
F1487928662.3921709
tp193
a(F1487928619.4704101
F1487928665.8569379
tp194
a(F1487928612.7270899
F1487928678.6935599
tp195
a(F1487928619.8005559
F1487928677.3215809
tp196
a(F1487928612.760303
F1487928661.5809729
tp197
a(F1487928612.764426
F1487928655.1858189
tp198
a(F1487928612.8827419
F1487928676.8460209
tp199
a(F1487928612.8568881
F1487928701.673558
tp200
a(F1487928612.725462
F1487928698.6841061
tp201
a(F1487928621.1280241
F1487928747.0157411
tp202
a(F1487928613.8868189
F1487928700.023
tp203
a(F1487928612.9237061
F1487928693.301656
tp204
a(F1487928613.5465779
F1487928669.3219719
tp205
a(F1487928612.8972509
F1487928684.3648839
tp206
a(F1487928612.9253981
F1487928668.5920911
tp207
a(F1487928612.8491421
F1487928660.341099
tp208
a(F1487928612.7252359
F1487928677.6933579
tp209
a(F1487928613.5621541
F1487928672.670994
tp210
a(F1487928612.8984821
F1487928649.0213439
tp211
a(F1487928621.3954539
F1487928713.782161
tp212
a(F1487928619.712847
F1487928677.4479439
tp213
a(F1487928612.9091539
F1487928705.5685129
tp214
a(F1487928620.7273531
F1487928655.813776
tp215
a(F1487928619.881408
F1487928744.4243031
tp216
a(F1487928612.8696611
F1487928663.5256569
tp217
a(F1487928618.594239
F1487928705.249398
tp218
a(F1487928612.7162471
F1487928696.9379129
tp219
a(F1487928619.833086
F1487928687.0752499
tp220
a(F1487928613.5418019
F1487928654.7445321
tp221
a(F1487928613.02823
F1487928679.7192979
tp222
a(F1487928613.5015121
F1487928695.9320381
tp223
a(F1487928620.0804839
F1487928661.7326591
tp224
a(F1487928620.3549039
F1487928750.1136811
tp225
a(F1487928619.8426869
F1487928672.7355211
tp226
a(F1487928612.9868791
F1487928694.7315431
tp227
a(F1487928613.3071599
F1487928688.093437
tp228
a(F1487928619.869652
F1487928735.3089459
tp229
a(F1487928612.7971621
F1487928665.449034
tp230
a(F1487928612.789752
F1487928720.483217
tp231
a(F1487928613.0121469
F1487928676.0460551
tp232
a(F1487928613.0765641
F1487928649.500845
tp233
a(F1487928613.559355
F1487928659.7163141
tp234
a(F1487928622.4537261
F1487928694.9184549
tp235
a(F1487928613.141432
F1487928694.3853519
tp236
a(F1487928620.057168
F1487928753.196552
tp237
a(F1487928612.870924
F1487928681.3339181
tp238
a(F1487928620.0012071
F1487928671.0137739
tp239
a(F1487928612.8711791
F1487928658.2199581
tp240
a(F1487928612.9829099
F1487928682.1873519
tp241
a(F1487928620.032407
F1487928685.4369791
tp242
a(F1487928613.4543879
F1487928670.682493
tp243
a(F1487928613.565141
F1487928687.7926509
tp244
a(F1487928613.654206
F1487928672.908812
tp245
a(F1487928621.035284
F1487928781.5266659
tp246
a(F1487928620.374871
F1487928666.1417069
tp247
a(F1487928619.797076
F1487928664.478415
tp248
a(F1487928613.003334
F1487928665.6407981
tp249
a(F1487928619.9672019
F1487928692.486598
tp250
a(F1487928613.5748079
F1487928672.9431009
tp251
a(F1487928613.4181581
F1487928686.0343289
tp252
a(F1487928613.3798139
F1487928684.7513361
tp253
a(F1487928620.0069511
F1487928681.1708319
tp254
a(F1487928613.3621039
F1487928664.1555221
tp255
a(F1487928620.2939761
F1487928678.464144
tp256
a(F1487928613.6215241
F1487928684.2801421
tp257
a(F1487928613.5068121
F1487928667.0953751
tp258
a(F1487928613.554812
F1487928681.5073831
tp259
a(F1487928620.535553
F1487928696.472393
tp260
a(F1487928613.520215
F1487928674.1842871
tp261
a(F1487928620.64992
F1487928664.7453549
tp262
a(F1487928620.4220569
F1487928673.7514789
tp263
a(F1487928613.5851779
F1487928667.2492061
tp264
a(F1487928613.398773
F1487928672.7251289
tp265
a(F1487928621.7611401
F1487928710.6657951
tp266
a(F1487928613.5832109
F1487928679.2380421
tp267
a(F1487928613.5990319
F1487928664.354851
tp268
a(F1487928613.635916
F1487928811.056385
tp269
a(F1487928620.1554711
F1487928666.7037389
tp270
a(F1487928613.1473081
F1487928700.642637
tp271
a(F1487928620.0957229
F1487928674.189338
tp272
a(F1487928621.158648
F1487928664.233757
tp273
a(F1487928620.212177
F1487928667.1829159
tp274
a(F1487928620.2318311
F1487928697.667866
tp275
a(F1487928620.266089
F1487928695.469002
tp276
a(F1487928621.388797
F1487928722.86022
tp277
a(F1487928620.60589
F1487928718.319289
tp278
a(F1487928620.101639
F1487928702.8677011
tp279
a(F1487928613.153677
F1487928664.7551429
tp280
a(F1487928613.6113241
F1487928701.3632259
tp281
a(F1487928613.5081229
F1487928666.198621
tp282
a(F1487928620.5062561
F1487928677.386761
tp283
a(F1487928614.10604
F1487928682.0304689
tp284
a(F1487928613.4094369
F1487928652.411665
tp285
a(F1487928613.5332971
F1487928709.23785
tp286
a(F1487928620.3708241
F1487928675.3240271
tp287
a(F1487928620.326968
F1487928746.7100489
tp288
a(F1487928620.5073521
F1487928691.1748409
tp289
a(F1487928613.5901539
F1487928690.8204601
tp290
a(F1487928620.335151
F1487928692.176306
tp291
a(F1487928620.3693459
F1487928751.5324211
tp292
a(F1487928620.3439
F1487928772.532429
tp293
a(F1487928620.553828
F1487928679.8032269
tp294
a(F1487928620.266068
F1487928683.9649291
tp295
a(F1487928613.5377841
F1487928660.4190941
tp296
a(F1487928613.6020131
F1487928696.1445529
tp297
a(F1487928621.5487111
F1487928669.6517501
tp298
a(F1487928620.40836
F1487928665.8283379
tp299
a(F1487928613.8437941
F1487928671.03564
tp300
a(F1487928621.5296209
F1487928671.617547
tp301
a(F1487928621.5861189
F1487928690.071537
tp302
a(F1487928618.411674
F1487928683.257292
tp303
a(F1487928620.4713249
F1487928706.1838861
tp304
a(F1487928613.462687
F1487928696.837702
tp305
a(F1487928620.7823019
F1487928675.2705519
tp306
a(F1487928613.5779951
F1487928670.2744091
tp307
a(F1487928621.3946021
F1487928677.840498
tp308
a(F1487928621.2832439
F1487928657.401216
tp309
a(F1487928620.6249821
F1487928667.8833001
tp310
a(F1487928620.633251
F1487928659.7896359
tp311
a(F1487928621.8741541
F1487928687.1713231
tp312
a(F1487928613.8834691
F1487928685.340178
tp313
a(F1487928613.672195
F1487928677.7146151
tp314
a(F1487928621.010114
F1487928679.3664899
tp315
a(F1487928618.930521
F1487928675.0558269
tp316
a(F1487928614.4812491
F1487928665.104156
tp317
a(F1487928618.616823
F1487928684.268312
tp318
a(F1487928620.007303
F1487928694.6067359
tp319
a(F1487928613.7539661
F1487928665.126339
tp320
a(F1487928613.9356229
F1487928656.5527711
tp321
a(F1487928621.0992939
F1487928699.197511
tp322
a(F1487928613.5847459
F1487928662.384876
tp323
a(F1487928620.8196709
F1487928666.7110529
tp324
a(F1487928614.0802851
F1487928689.3510151
tp325
a(F1487928620.501282
F1487928731.349968
tp326
a(F1487928620.920059
F1487928682.475101
tp327
a(F1487928613.9521999
F1487928673.05514
tp328
a(F1487928613.9066141
F1487928686.9142079
tp329
a(F1487928613.8552401
F1487928700.1216619
tp330
a(F1487928613.8260379
F1487928734.1482241
tp331
a(F1487928614.3419819
F1487928699.173542
tp332
a(F1487928620.5050631
F1487928661.1873889
tp333
a(F1487928621.3827569
F1487928702.0103691
tp334
a(F1487928620.8473139
F1487928705.5603449
tp335
a(F1487928621.117389
F1487928698.2554801
tp336
a(F1487928620.620662
F1487928673.2988729
tp337
a(F1487928620.4907479
F1487928684.5319829
tp338
a(F1487928621.8074341
F1487928671.0575409
tp339
a(F1487928620.4860079
F1487928719.802424
tp340
a(F1487928620.3129799
F1487928659.1955659
tp341
a(F1487928620.346863
F1487928719.8267739
tp342
a(F1487928613.5478771
F1487928759.429352
tp343
a(F1487928614.0637031
F1487928679.2561059
tp344
a(F1487928621.0604429
F1487928736.55474
tp345
a(F1487928614.540715
F1487928739.7329121
tp346
a(F1487928622.051543
F1487928699.5272651
tp347
a(F1487928620.4294319
F1487928679.2588301
tp348
a(F1487928614.4370091
F1487928655.660306
tp349
a(F1487928620.8791671
F1487928709.3587911
tp350
a(F1487928620.397856
F1487928677.987489
tp351
a(F1487928620.5735409
F1487928694.3328381
tp352
a(F1487928621.058094
F1487928662.3953979
tp353
a(F1487928620.4993589
F1487928702.0815401
tp354
a(F1487928620.8216879
F1487928711.6372759
tp355
a(F1487928620.523849
F1487928665.7636249
tp356
a(F1487928620.3596699
F1487928712.317929
tp357
a(F1487928613.6358011
F1487928671.0358491
tp358
a(F1487928613.737606
F1487928664.4043651
tp359
a(F1487928621.008018
F1487928660.921571
tp360
a(F1487928620.4512379
F1487928732.220576
tp361
a(F1487928622.2792189
F1487928674.6924491
tp362
a(F1487928613.7699001
F1487928662.4512639
tp363
a(F1487928613.7321329
F1487928666.9240389
tp364
a(F1487928615.087178
F1487928662.5372219
tp365
a(F1487928622.0223529
F1487928664.5892341
tp366
a(F1487928621.232691
F1487928677.4691441
tp367
a(F1487928621.8948009
F1487928689.5770669
tp368
a(F1487928621.5297639
F1487928701.5266891
tp369
a(F1487928614.033555
F1487928688.070626
tp370
a(F1487928620.682426
F1487928663.5680709
tp371
a(F1487928614.019382
F1487928697.703975
tp372
a(F1487928614.0265191
F1487928658.281733
tp373
a(F1487928621.1200061
F1487928749.0831189
tp374
a(F1487928613.9638591
F1487928675.9164009
tp375
a(F1487928614.2091329
F1487928668.368053
tp376
a(F1487928620.8206739
F1487928657.1688509
tp377
a(F1487928619.069844
F1487928680.754003
tp378
a(F1487928621.0505991
F1487928698.1568949
tp379
a(F1487928621.486805
F1487928701.2542109
tp380
a(F1487928614.332608
F1487928687.206233
tp381
a(F1487928614.4407811
F1487928715.6437769
tp382
a(F1487928614.812613
F1487928699.095403
tp383
a(F1487928620.796912
F1487928686.8468139
tp384
a(F1487928621.3549089
F1487928713.4274409
tp385
a(F1487928614.3628039
F1487928654.9152319
tp386
a(F1487928620.833056
F1487928672.784961
tp387
a(F1487928622.661031
F1487928689.551919
tp388
a(F1487928621.256382
F1487928681.320626
tp389
a(F1487928614.3110521
F1487928709.2356
tp390
a(F1487928621.206404
F1487928719.2123411
tp391
a(F1487928621.2986591
F1487928657.831003
tp392
a(F1487928614.3467431
F1487928701.799088
tp393
a(F1487928614.2919159
F1487928662.9954529
tp394
a(F1487928621.1332729
F1487928670.5836
tp395
a(F1487928621.215323
F1487928683.3869851
tp396
a(F1487928621.2431359
F1487928682.081701
tp397
a(F1487928614.7843831
F1487928665.804148
tp398
a(F1487928621.081846
F1487928665.519573
tp399
a(F1487928621.9794829
F1487928669.0382891
tp400
a(F1487928620.934552
F1487928693.6995959
tp401
a(F1487928621.6258919
F1487928694.72071
tp402
a(F1487928620.274425
F1487928761.640377
tp403
a(F1487928621.501061
F1487928669.5845611
tp404
a(F1487928621.1364281
F1487928676.7204659
tp405
a(F1487928614.50495
F1487928668.0175371
tp406
a(F1487928621.3035669
F1487928700.7037539
tp407
a(F1487928619.3432069
F1487928695.924309
tp408
a(F1487928619.420084
F1487928677.1099911
tp409
a(F1487928614.248636
F1487928719.796236
tp410
a(F1487928621.914191
F1487928682.4380119
tp411
a(F1487928621.23142
F1487928699.4875209
tp412
a(F1487928621.273283
F1487928663.8102479
tp413
a(F1487928621.4695189
F1487928694.57337
tp414
a(F1487928621.4954219
F1487928665.953017
tp415
a(F1487928621.274224
F1487928800.3151729
tp416
a(F1487928614.753206
F1487928668.606993
tp417
a(F1487928621.6706631
F1487928674.0213599
tp418
a(F1487928622.0513761
F1487928674.5580561
tp419
a(F1487928614.2936461
F1487928689.626344
tp420
a(F1487928621.720222
F1487928725.410774
tp421
a(F1487928621.490696
F1487928697.0579669
tp422
a(F1487928621.3765199
F1487928731.9825161
tp423
a(F1487928621.3738761
F1487928711.623682
tp424
a(F1487928621.195513
F1487928670.3756189
tp425
a(F1487928621.478658
F1487928701.4064331
tp426
a(F1487928621.614224
F1487928707.894155
tp427
a(F1487928621.411787
F1487928684.9178779
tp428
a(F1487928620.8482101
F1487928700.8872111
tp429
a(F1487928621.4363971
F1487928698.3367851
tp430
a(F1487928621.167166
F1487928676.87392
tp431
a(F1487928621.5168059
F1487928671.7448289
tp432
a(F1487928621.8341429
F1487928677.2345309
tp433
a(F1487928621.0224659
F1487928662.4424679
tp434
a(F1487928622.0063081
F1487928667.4734449
tp435
a(F1487928621.6601779
F1487928673.2078619
tp436
a(F1487928621.1634841
F1487928697.4499409
tp437
a(F1487928621.417455
F1487928768.619966
tp438
a(F1487928621.071202
F1487928659.336987
tp439
a(F1487928621.7917171
F1487928687.462234
tp440
a(F1487928622.5382309
F1487928696.6588039
tp441
a(F1487928621.354722
F1487928704.9903121
tp442
a(F1487928622.2355089
F1487928677.842432
tp443
a(F1487928614.7203181
F1487928744.610554
tp444
a(F1487928622.986413
F1487928686.604501
tp445
a(F1487928621.6928549
F1487928710.2186251
tp446
a(F1487928622.38394
F1487928658.8134069
tp447
a(F1487928621.5172579
F1487928695.690887
tp448
a(F1487928621.606823
F1487928683.245894
tp449
a(F1487928621.7603569
F1487928683.3634789
tp450
a(F1487928621.5296199
F1487928693.4298799
tp451
a(F1487928623.5617981
F1487928729.9358721
tp452
a(F1487928622.250432
F1487928669.4374261
tp453
a(F1487928621.7919619
F1487928657.0421
tp454
a(F1487928619.7981911
F1487928721.74634
tp455
a(F1487928622.638818
F1487928669.5441949
tp456
a(F1487928621.8018
F1487928681.841445
tp457
a(F1487928621.784714
F1487928721.3433299
tp458
a(F1487928621.583369
F1487928752.653312
tp459
a(F1487928614.8655379
F1487928689.5339451
tp460
a(F1487928621.7426791
F1487928731.350414
tp461
a(F1487928621.176712
F1487928706.400497
tp462
a(F1487928622.8541009
F1487928707.0488241
tp463
a(F1487928621.624064
F1487928774.268503
tp464
a(F1487928621.4944899
F1487928672.0172031
tp465
a(F1487928621.529562
F1487928660.4740729
tp466
a(F1487928621.5906379
F1487928674.350071
tp467
a(F1487928621.8669081
F1487928729.8636539
tp468
a(F1487928621.7689869
F1487928684.7409689
tp469
a(F1487928621.3827989
F1487928664.5605021
tp470
a(F1487928614.8067019
F1487928675.6206861
tp471
a(F1487928621.346761
F1487928673.3288181
tp472
a(F1487928621.9866409
F1487928736.5131719
tp473
a(F1487928621.811799
F1487928661.8400619
tp474
a(F1487928621.493449
F1487928687.2776909
tp475
a(F1487928621.8143671
F1487928679.658694
tp476
a(F1487928621.857492
F1487928706.6684339
tp477
a(F1487928622.0480039
F1487928685.8956511
tp478
a(F1487928621.560199
F1487928680.466893
tp479
a(F1487928622.325182
F1487928667.8265829
tp480
a(F1487928621.8679881
F1487928711.4364769
tp481
a(F1487928621.730536
F1487928686.3616259
tp482
a(F1487928622.2368109
F1487928682.1062629
tp483
a(F1487928621.882519
F1487928682.45386
tp484
a(F1487928621.1357789
F1487928720.244992
tp485
a(F1487928621.81757
F1487928669.365396
tp486
a(F1487928621.6420259
F1487928688.3962531
tp487
a(F1487928622.2400129
F1487928752.7865419
tp488
a(F1487928621.584549
F1487928688.9129131
tp489
a(F1487928624.033849
F1487928691.396369
tp490
a(F1487928621.335125
F1487928687.332499
tp491
a(F1487928621.753619
F1487928734.4235971
tp492
a(F1487928621.3251979
F1487928682.3917511
tp493
a(F1487928622.110213
F1487928680.881402
tp494
a(F1487928622.2368109
F1487928746.7590311
tp495
a(F1487928621.14325
F1487928742.86289
tp496
a(F1487928621.6822729
F1487928660.7647481
tp497
a(F1487928621.8283229
F1487928659.9852409
tp498
a(F1487928621.9649079
F1487928713.2308569
tp499
a(F1487928621.8286891
F1487928662.5533431
tp500
a(F1487928622.3241789
F1487928705.193428
tp501
a(F1487928622.56113
F1487928736.8396239
tp502
a(F1487928622.1688321
F1487928804.9025681
tp503
a(F1487928615.2743411
F1487928681.451134
tp504
a(F1487928620.259973
F1487928666.518049
tp505
a(F1487928622.197226
F1487928681.897846
tp506
a(F1487928621.941746
F1487928671.405504
tp507
a(F1487928621.8728769
F1487928686.4267459
tp508
a(F1487928621.842207
F1487928717.763453
tp509
a(F1487928615.3870399
F1487928650.560734
tp510
a(F1487928621.814554
F1487928654.51353
tp511
a(F1487928621.9578159
F1487928688.490473
tp512
a(F1487928622.314184
F1487928739.949265
tp513
a(F1487928621.0766261
F1487928731.708302
tp514
a(F1487928622.1013069
F1487928759.76263
tp515
a(F1487928622.0427301
F1487928683.2609701
tp516
a(F1487928622.1242859
F1487928702.4210119
tp517
a(F1487928622.1172161
F1487928716.3259809
tp518
a(F1487928622.192935
F1487928690.913718
tp519
a(F1487928623.77529
F1487928688.8969121
tp520
a(F1487928622.9068661
F1487928680.608109
tp521
a(F1487928622.2648511
F1487928664.520875
tp522
a(F1487928615.464397
F1487928706.5048759
tp523
a(F1487928622.4558539
F1487928673.9914999
tp524
a(F1487928622.4386261
F1487928667.0405841
tp525
a(F1487928622.5319431
F1487928662.2220981
tp526
a(F1487928622.5491221
F1487928686.673208
tp527
a(F1487928622.155062
F1487928697.4535451
tp528
a(F1487928615.196003
F1487928730.1602521
tp529
a(F1487928622.647753
F1487928691.268292
tp530
a(F1487928622.3550849
F1487928690.8961489
tp531
a(F1487928622.193774
F1487928698.941103
tp532
a(F1487928615.2493041
F1487928672.419251
tp533
a(F1487928621.9412489
F1487928703.676096
tp534
a(F1487928615.644613
F1487928707.387394
tp535
a(F1487928622.1127191
F1487928664.3521571
tp536
a(F1487928622.269311
F1487928708.908087
tp537
a(F1487928622.553875
F1487928678.6965449
tp538
a(F1487928622.570478
F1487928685.2088809
tp539
a(F1487928622.2265871
F1487928670.1479139
tp540
a(F1487928622.5385101
F1487928676.1037819
tp541
a(F1487928622.9888999
F1487928688.036092
tp542
a(F1487928623.9856889
F1487928672.1063221
tp543
a(F1487928622.876895
F1487928661.052191
tp544
a(F1487928621.775116
F1487928673.8725171
tp545
a(F1487928622.2298009
F1487928702.072063
tp546
a(F1487928621.8624899
F1487928655.8650801
tp547
a(F1487928622.5431719
F1487928694.336966
tp548
a(F1487928622.3907931
F1487928681.912837
tp549
a(F1487928622.4438059
F1487928731.9349661
tp550
a(F1487928623.0778971
F1487928690.0732369
tp551
a(F1487928622.5264189
F1487928665.0646091
tp552
a(F1487928622.190037
F1487928705.8572819
tp553
a(F1487928622.5050099
F1487928682.4917481
tp554
a(F1487928622.2848661
F1487928683.506299
tp555
a(F1487928622.86062
F1487928667.800828
tp556
a(F1487928622.1187849
F1487928665.984515
tp557
a(F1487928622.707164
F1487928664.770642
tp558
a(F1487928624.393697
F1487928758.5952051
tp559
a(F1487928622.8204551
F1487928681.577544
tp560
a(F1487928622.3290219
F1487928703.7812879
tp561
a(F1487928622.4856739
F1487928691.044137
tp562
a(F1487928622.336875
F1487928757.897903
tp563
a(F1487928621.916976
F1487928663.589421
tp564
a(F1487928623.243854
F1487928687.8177731
tp565
a(F1487928624.7479789
F1487928711.8054931
tp566
a(F1487928622.513428
F1487928674.2787161
tp567
a(F1487928624.330889
F1487928663.4788711
tp568
a(F1487928624.0852079
F1487928703.6862061
tp569
a(F1487928622.852351
F1487928670.4357679
tp570
a(F1487928622.512991
F1487928762.72226
tp571
a(F1487928622.4175341
F1487928674.590194
tp572
a(F1487928623.038444
F1487928662.7805309
tp573
a(F1487928622.1389179
F1487928652.7732129
tp574
a(F1487928622.6413901
F1487928741.075062
tp575
a(F1487928622.9727931
F1487928774.7194209
tp576
a(F1487928624.7931969
F1487928671.8875489
tp577
a(F1487928622.788311
F1487928678.6562309
tp578
a(F1487928622.4223211
F1487928689.312501
tp579
a(F1487928622.5915041
F1487928662.927824
tp580
a(F1487928623.0865631
F1487928687.1459911
tp581
a(F1487928624.2795329
F1487928681.3323691
tp582
a(F1487928622.640003
F1487928696.7380321
tp583
a(F1487928622.452198
F1487928679.1506679
tp584
a(F1487928623.970094
F1487928682.1805069
tp585
a(F1487928623.0175819
F1487928670.93297
tp586
a(F1487928623.451097
F1487928687.468075
tp587
a(F1487928623.3789401
F1487928693.4892819
tp588
a(F1487928623.0645881
F1487928676.197473
tp589
a(F1487928615.792357
F1487928682.450001
tp590
a(F1487928622.8533821
F1487928694.31165
tp591
a(F1487928622.7285931
F1487928668.514529
tp592
a(F1487928622.6536469
F1487928793.3523681
tp593
a(F1487928622.889627
F1487928667.2813931
tp594
a(F1487928622.513552
F1487928672.606051
tp595
a(F1487928622.623786
F1487928666.8605039
tp596
a(F1487928624.088618
F1487928680.283499
tp597
a(F1487928616.9220829
F1487928683.5313201
tp598
a(F1487928622.7805591
F1487928685.4020879
tp599
a(F1487928622.395786
F1487928731.066916
tp600
a(F1487928622.8910949
F1487928703.5801649
tp601
a(F1487928622.8589909
F1487928671.948087
tp602
a(F1487928622.9260521
F1487928656.275615
tp603
a(F1487928622.9202909
F1487928671.8426859
tp604
a(F1487928616.1867731
F1487928722.7788241
tp605
a(F1487928623.0609729
F1487928667.8187361
tp606
a(F1487928623.5683041
F1487928684.4437201
tp607
a(F1487928622.464798
F1487928760.3803
tp608
a(F1487928623.7087469
F1487928774.5107319
tp609
a(F1487928622.856297
F1487928677.7869589
tp610
a(F1487928622.4098761
F1487928698.822226
tp611
a(F1487928622.8435669
F1487928668.9843531
tp612
a(F1487928622.792098
F1487928676.254756
tp613
a(F1487928622.681592
F1487928679.755789
tp614
a(F1487928623.201571
F1487928677.898855
tp615
a(F1487928622.9696651
F1487928671.4947801
tp616
a(F1487928622.9747419
F1487928716.5253999
tp617
a(F1487928623.0506179
F1487928692.179641
tp618
a(F1487928622.543591
F1487928761.761678
tp619
a(F1487928622.8526421
F1487928687.4869709
tp620
a(F1487928622.7537839
F1487928680.296355
tp621
a(F1487928622.402189
F1487928697.62661
tp622
a(F1487928622.978807
F1487928680.916337
tp623
a(F1487928625.0822029
F1487928684.405143
tp624
a(F1487928622.791296
F1487928688.47261
tp625
a(F1487928623.688087
F1487928684.672076
tp626
a(F1487928622.961864
F1487928750.319061
tp627
a(F1487928623.3548939
F1487928665.551019
tp628
a(F1487928622.9479539
F1487928685.0168309
tp629
a(F1487928616.793061
F1487928671.5217741
tp630
a(F1487928623.1297779
F1487928684.861583
tp631
a(F1487928622.8252599
F1487928734.3178611
tp632
a(F1487928623.6251559
F1487928659.468797
tp633
a(F1487928623.0380499
F1487928693.963774
tp634
a(F1487928624.507483
F1487928679.3158779
tp635
a(F1487928623.0153091
F1487928649.622261
tp636
a(F1487928623.5514171
F1487928702.8402259
tp637
a(F1487928623.388665
F1487928717.5105071
tp638
a(F1487928623.364058
F1487928665.6726849
tp639
a(F1487928623.1462619
F1487928671.6704581
tp640
a(F1487928623.2967269
F1487928777.48772
tp641
a(F1487928623.247576
F1487928652.714947
tp642
a(F1487928623.1652541
F1487928661.192265
tp643
a(F1487928623.237246
F1487928666.5352831
tp644
a(F1487928616.318815
F1487928679.391295
tp645
a(F1487928623.2774251
F1487928685.357193
tp646
a(F1487928621.5181811
F1487928698.9686911
tp647
a(F1487928623.00104
F1487928696.5676129
tp648
a(F1487928622.7313111
F1487928674.0380411
tp649
a(F1487928624.5037019
F1487928697.6674659
tp650
a(F1487928623.259388
F1487928664.4734759
tp651
a(F1487928622.7224791
F1487928684.1507361
tp652
a(F1487928623.2329929
F1487928712.5495811
tp653
a(F1487928623.222367
F1487928721.661176
tp654
a(F1487928623.5988591
F1487928656.875977
tp655
a(F1487928622.7597301
F1487928671.5852449
tp656
a(F1487928623.5358679
F1487928677.732605
tp657
a(F1487928623.514406
F1487928684.7678051
tp658
a(F1487928623.1918299
F1487928705.449266
tp659
a(F1487928623.0769351
F1487928682.179225
tp660
a(F1487928623.177104
F1487928692.1875801
tp661
a(F1487928623.3960309
F1487928691.156373
tp662
a(F1487928623.165195
F1487928723.2957699
tp663
a(F1487928623.0005441
F1487928677.0196249
tp664
a(F1487928623.4121661
F1487928684.0779679
tp665
a(F1487928623.5269639
F1487928692.917721
tp666
a(F1487928623.253617
F1487928686.4387541
tp667
a(F1487928622.935919
F1487928708.7689891
tp668
a(F1487928623.6416421
F1487928678.0483949
tp669
a(F1487928623.4491129
F1487928694.8797231
tp670
a(F1487928622.700386
F1487928688.34355
tp671
a(F1487928623.439636
F1487928686.970598
tp672
a(F1487928623.6989241
F1487928711.9618289
tp673
a(F1487928623.657294
F1487928700.6687829
tp674
a(F1487928623.1884069
F1487928692.4423051
tp675
a(F1487928623.155206
F1487928720.903502
tp676
a(F1487928623.812546
F1487928692.278259
tp677
a(F1487928623.451052
F1487928702.3538821
tp678
a(F1487928623.2415991
F1487928700.1691329
tp679
a(F1487928623.2900231
F1487928679.3738351
tp680
a(F1487928623.725718
F1487928679.639986
tp681
a(F1487928623.645792
F1487928656.697232
tp682
a(F1487928624.28579
F1487928695.8478861
tp683
a(F1487928623.3820741
F1487928676.9848771
tp684
a(F1487928623.1864431
F1487928700.930913
tp685
a(F1487928623.4269519
F1487928699.791554
tp686
a(F1487928621.582695
F1487928654.679266
tp687
a(F1487928623.758038
F1487928702.937222
tp688
a(F1487928623.3858781
F1487928674.4652181
tp689
a(F1487928623.724005
F1487928740.0873561
tp690
a(F1487928623.678441
F1487928688.3995941
tp691
a(F1487928617.2259109
F1487928694.9053791
tp692
a(F1487928623.567544
F1487928659.578732
tp693
a(F1487928624.487777
F1487928688.7336431
tp694
a(F1487928623.9967639
F1487928688.5858381
tp695
a(F1487928623.0496399
F1487928709.694119
tp696
a(F1487928623.560539
F1487928654.283226
tp697
a(F1487928623.5297079
F1487928722.1467731
tp698
a(F1487928623.383678
F1487928703.0042181
tp699
a(F1487928624.680989
F1487928676.2789969
tp700
a(F1487928623.0540349
F1487928703.854851
tp701
a(F1487928624.3288951
F1487928782.284333
tp702
a(F1487928623.6879849
F1487928722.152082
tp703
a(F1487928623.7793441
F1487928672.096076
tp704
a(F1487928623.7476659
F1487928696.3514719
tp705
a(F1487928623.5677869
F1487928703.881192
tp706
a(F1487928623.673198
F1487928711.318202
tp707
a(F1487928623.480099
F1487928716.723855
tp708
a(F1487928623.5146599
F1487928681.3123281
tp709
a(F1487928624.6309249
F1487928685.843756
tp710
a(F1487928624.271121
F1487928689.3258879
tp711
a(F1487928623.739044
F1487928680.054131
tp712
a(F1487928624.6480031
F1487928665.985816
tp713
a(F1487928623.730823
F1487928663.610045
tp714
a(F1487928622.8374369
F1487928689.2313509
tp715
a(F1487928624.9155519
F1487928676.707989
tp716
a(F1487928623.8613131
F1487928689.9957969
tp717
a(F1487928623.842504
F1487928715.3009281
tp718
a(F1487928623.60852
F1487928664.0065689
tp719
a(F1487928623.4493129
F1487928663.9899681
tp720
a(F1487928617.348397
F1487928819.287317
tp721
a(F1487928623.649951
F1487928669.282443
tp722
a(F1487928623.2529609
F1487928771.610714
tp723
a(F1487928623.679997
F1487928668.3559599
tp724
a(F1487928623.5235929
F1487928671.6475739
tp725
a(F1487928622.3672349
F1487928702.3677199
tp726
a(F1487928623.7628181
F1487928700.1371059
tp727
a(F1487928624.2437389
F1487928705.8623741
tp728
a(F1487928624.4304919
F1487928683.935884
tp729
a(F1487928623.641161
F1487928688.559283
tp730
a(F1487928624.0157731
F1487928685.712471
tp731
a(F1487928623.4842491
F1487928713.173794
tp732
a(F1487928623.3793759
F1487928700.2342751
tp733
a(F1487928624.222378
F1487928682.8936141
tp734
a(F1487928623.820251
F1487928689.951653
tp735
a(F1487928623.837621
F1487928698.7277019
tp736
a(F1487928623.7656391
F1487928714.8034151
tp737
a(F1487928624.5730209
F1487928667.559546
tp738
a(F1487928623.071008
F1487928697.9682829
tp739
a(F1487928622.2069609
F1487928667.00846
tp740
a(F1487928623.9116011
F1487928764.1323581
tp741
a(F1487928623.9931149
F1487928744.4160819
tp742
a(F1487928623.600637
F1487928711.734494
tp743
a(F1487928623.9262121
F1487928677.666995
tp744
a(F1487928624.1536331
F1487928680.3168831
tp745
a(F1487928624.121953
F1487928658.081692
tp746
a(F1487928623.8392899
F1487928657.8171599
tp747
a(F1487928624.074259
F1487928691.6145489
tp748
a(F1487928623.861495
F1487928723.4338851
tp749
a(F1487928623.792388
F1487928675.1741829
tp750
a(F1487928623.9277649
F1487928678.4475031
tp751
a(F1487928624.030906
F1487928705.593302
tp752
a(F1487928623.882061
F1487928688.857404
tp753
a(F1487928623.88761
F1487928672.181464
tp754
a(F1487928623.8458431
F1487928667.985827
tp755
a(F1487928624.7978749
F1487928714.860287
tp756
a(F1487928623.9064641
F1487928678.138725
tp757
a(F1487928623.9576819
F1487928665.4433739
tp758
a(F1487928623.7915399
F1487928733.2790151
tp759
a(F1487928623.766094
F1487928684.7617869
tp760
a(F1487928623.7908831
F1487928725.4555459
tp761
a(F1487928624.204989
F1487928678.187186
tp762
a(F1487928624.023134
F1487928664.969378
tp763
a(F1487928623.476362
F1487928667.804605
tp764
a(F1487928623.8250799
F1487928755.376687
tp765
a(F1487928623.6827919
F1487928659.149194
tp766
a(F1487928624.221585
F1487928676.39431
tp767
a(F1487928624.3728499
F1487928684.932277
tp768
a(F1487928626.1797819
F1487928726.9331861
tp769
a(F1487928623.992862
F1487928658.981776
tp770
a(F1487928623.8706651
F1487928698.225677
tp771
a(F1487928624.433526
F1487928733.052964
tp772
a(F1487928623.795619
F1487928669.8570271
tp773
a(F1487928623.9452579
F1487928737.3903511
tp774
a(F1487928623.824683
F1487928667.8324101
tp775
a(F1487928624.0496709
F1487928707.7149379
tp776
a(F1487928624.036638
F1487928662.204941
tp777
a(F1487928623.990835
F1487928679.3521619
tp778
a(F1487928624.4501851
F1487928685.687957
tp779
a(F1487928624.2247479
F1487928674.4276519
tp780
a(F1487928624.248107
F1487928749.7327759
tp781
a(F1487928624.049541
F1487928670.865432
tp782
a(F1487928624.5183511
F1487928716.5431449
tp783
a(F1487928624.1690331
F1487928664.731806
tp784
a(F1487928624.3098371
F1487928700.0480461
tp785
a(F1487928625.6890471
F1487928667.798569
tp786
a(F1487928624.474205
F1487928678.8346069
tp787
a(F1487928624.470829
F1487928714.1314189
tp788
a(F1487928624.26824
F1487928676.4336369
tp789
a(F1487928624.5218389
F1487928720.3166969
tp790
a(F1487928624.367161
F1487928689.2043841
tp791
a(F1487928624.5389371
F1487928708.705683
tp792
a(F1487928624.6743889
F1487928669.4204791
tp793
a(F1487928624.318284
F1487928688.5549669
tp794
a(F1487928623.2714331
F1487928690.1434259
tp795
a(F1487928624.250407
F1487928670.770267
tp796
a(F1487928621.8557091
F1487928704.9717081
tp797
a(F1487928624.1096661
F1487928736.424552
tp798
a(F1487928624.863955
F1487928678.5631521
tp799
a(F1487928624.155081
F1487928696.1952851
tp800
a(F1487928624.2104599
F1487928685.882211
tp801
a(F1487928626.6454489
F1487928668.736872
tp802
a(F1487928624.338316
F1487928692.899555
tp803
a(F1487928624.3526599
F1487928676.6889911
tp804
a(F1487928623.909379
F1487928680.2540851
tp805
a(F1487928624.5925469
F1487928714.9426579
tp806
a(F1487928623.099766
F1487928669.9660561
tp807
a(F1487928624.482811
F1487928677.6846421
tp808
a(F1487928624.062408
F1487928710.520515
tp809
a(F1487928625.9659121
F1487928675.1224191
tp810
a(F1487928624.531116
F1487928681.67869
tp811
a(F1487928623.8872559
F1487928689.06352
tp812
a(F1487928625.4863629
F1487928675.173604
tp813
a(F1487928623.803062
F1487928688.1809571
tp814
a(F1487928625.174551
F1487928689.1740351
tp815
a(F1487928625.754559
F1487928658.112566
tp816
a(F1487928624.317003
F1487928664.393147
tp817
a(F1487928623.9866991
F1487928677.1598821
tp818
a(F1487928624.1115551
F1487928683.136291
tp819
a(F1487928626.7968509
F1487928698.9645929
tp820
a(F1487928624.3660021
F1487928686.9579239
tp821
a(F1487928624.8440461
F1487928672.5066221
tp822
a(F1487928624.547085
F1487928673.2843261
tp823
a(F1487928624.717128
F1487928712.2084661
tp824
a(F1487928625.690172
F1487928691.515898
tp825
a(F1487928626.953896
F1487928724.2803011
tp826
a(F1487928625.1236551
F1487928706.8357439
tp827
a(F1487928624.367018
F1487928665.2586529
tp828
a(F1487928624.4865811
F1487928675.3029931
tp829
a(F1487928626.7237999
F1487928679.2022181
tp830
a(F1487928624.6465831
F1487928660.801451
tp831
a(F1487928624.644573
F1487928683.0262051
tp832
a(F1487928624.7421529
F1487928676.362941
tp833
a(F1487928624.69451
F1487928668.7591989
tp834
a(F1487928624.7026761
F1487928658.659142
tp835
a(F1487928624.700649
F1487928659.8553121
tp836
a(F1487928624.301198
F1487928687.4562061
tp837
a(F1487928624.348098
F1487928686.653522
tp838
a(F1487928624.5102739
F1487928724.5601189
tp839
a(F1487928624.395771
F1487928683.3781221
tp840
a(F1487928624.6165619
F1487928698.21451
tp841
a(F1487928624.658854
F1487928777.6560941
tp842
a(F1487928624.3844099
F1487928712.3679781
tp843
a(F1487928624.443547
F1487928773.088984
tp844
a(F1487928624.72774
F1487928684.0502911
tp845
a(F1487928624.594296
F1487928676.2693529
tp846
a(F1487928624.6194029
F1487928716.3874719
tp847
a(F1487928624.267869
F1487928685.155834
tp848
a(F1487928624.6221819
F1487928755.0622499
tp849
a(F1487928624.8915989
F1487928719.7914021
tp850
a(F1487928624.738713
F1487928674.478528
tp851
a(F1487928626.3446629
F1487928708.5576899
tp852
a(F1487928624.696615
F1487928708.5120699
tp853
a(F1487928624.1750629
F1487928687.495065
tp854
a(F1487928624.6103759
F1487928675.773519
tp855
a(F1487928624.599741
F1487928695.138762
tp856
a(F1487928624.6567111
F1487928692.695014
tp857
a(F1487928624.860291
F1487928731.802772
tp858
a(F1487928624.733252
F1487928706.226119
tp859
a(F1487928624.8101799
F1487928693.6432159
tp860
a(F1487928624.7908001
F1487928709.4817331
tp861
a(F1487928624.576858
F1487928697.374537
tp862
a(F1487928624.761806
F1487928654.8371351
tp863
a(F1487928625.3919859
F1487928666.422271
tp864
a(F1487928624.748383
F1487928671.4457159
tp865
a(F1487928624.7820051
F1487928706.2264259
tp866
a(F1487928624.441498
F1487928727.917645
tp867
a(F1487928625.458813
F1487928686.8598399
tp868
a(F1487928625.0145609
F1487928683.39027
tp869
a(F1487928624.7003679
F1487928673.677274
tp870
a(F1487928624.32268
F1487928705.2420321
tp871
a(F1487928624.688431
F1487928685.950346
tp872
a(F1487928625.0431631
F1487928692.6850691
tp873
a(F1487928625.2216849
F1487928674.8120861
tp874
a(F1487928625.150923
F1487928666.622035
tp875
a(F1487928624.7824979
F1487928680.0957601
tp876
a(F1487928625.701107
F1487928702.2486639
tp877
a(F1487928624.9794121
F1487928711.1748741
tp878
a(F1487928624.9812679
F1487928729.4065909
tp879
a(F1487928624.6585841
F1487928668.8578839
tp880
a(F1487928624.8398371
F1487928712.9160049
tp881
a(F1487928624.537189
F1487928687.0685191
tp882
a(F1487928624.889817
F1487928681.246716
tp883
a(F1487928625.213382
F1487928669.8046949
tp884
a(F1487928624.8054171
F1487928719.75634
tp885
a(F1487928624.9681339
F1487928779.9059041
tp886
a(F1487928624.7469599
F1487928726.702137
tp887
a(F1487928625.2644899
F1487928765.208097
tp888
a(F1487928625.3155749
F1487928706.0957749
tp889
a(F1487928625.2510669
F1487928732.6501291
tp890
a(F1487928625.023149
F1487928714.1857109
tp891
a(F1487928624.584398
F1487928780.1945579
tp892
a(F1487928624.9831901
F1487928710.6094539
tp893
a(F1487928625.085974
F1487928682.191932
tp894
a(F1487928624.611033
F1487928700.1135731
tp895
a(F1487928625.074297
F1487928717.0527539
tp896
a(F1487928625.1387939
F1487928702.56109
tp897
a(F1487928625.8888209
F1487928678.209594
tp898
a(F1487928625.0207391
F1487928694.825196
tp899
a(F1487928625.4866791
F1487928659.3429711
tp900
a(F1487928625.4289391
F1487928664.1862011
tp901
a(F1487928624.9297719
F1487928694.933439
tp902
a(F1487928624.8976209
F1487928715.8775611
tp903
a(F1487928625.404192
F1487928778.2593811
tp904
a(F1487928625.380708
F1487928714.128288
tp905
a(F1487928625.146749
F1487928710.318383
tp906
a(F1487928625.4725101
F1487928665.0705171
tp907
a(F1487928625.40909
F1487928671.3503749
tp908
a(F1487928625.5738261
F1487928681.6500511
tp909
a(F1487928625.0454619
F1487928674.3197379
tp910
a(F1487928625.2981639
F1487928693.683903
tp911
a(F1487928624.867511
F1487928684.1899049
tp912
a(F1487928624.775105
F1487928693.4814279
tp913
a(F1487928625.0506971
F1487928717.4664271
tp914
a(F1487928624.3196001
F1487928760.881834
tp915
a(F1487928625.701575
F1487928720.190877
tp916
a(F1487928624.9662271
F1487928666.824182
tp917
a(F1487928626.159101
F1487928677.316503
tp918
a(F1487928624.903074
F1487928700.6724751
tp919
a(F1487928625.4658289
F1487928701.1712141
tp920
a(F1487928624.757247
F1487928691.5903161
tp921
a(F1487928624.7158051
F1487928684.4150341
tp922
a(F1487928626.102474
F1487928691.008944
tp923
a(F1487928623.936425
F1487928695.0982771
tp924
a(F1487928624.971849
F1487928665.465275
tp925
a(F1487928627.433635
F1487928664.445128
tp926
a(F1487928626.7021279
F1487928733.285604
tp927
a(F1487928624.818038
F1487928715.725106
tp928
a(F1487928624.9639289
F1487928748.045275
tp929
a(F1487928626.6498981
F1487928695.272522
tp930
a(F1487928625.4175949
F1487928717.6793339
tp931
a(F1487928624.5924139
F1487928669.3778141
tp932
a(F1487928626.127445
F1487928662.8686261
tp933
a(F1487928624.8711331
F1487928696.7169299
tp934
a(F1487928625.4130349
F1487928689.5772309
tp935
a(F1487928626.3269229
F1487928666.3167651
tp936
a(F1487928625.3596489
F1487928658.7622471
tp937
a(F1487928625.176795
F1487928675.6124101
tp938
a(F1487928625.480988
F1487928695.146183
tp939
a(F1487928625.2559209
F1487928669.038944
tp940
a(F1487928625.18806
F1487928680.5870359
tp941
a(F1487928625.287482
F1487928670.0365241
tp942
a(F1487928625.4071031
F1487928673.5562389
tp943
a(F1487928625.503772
F1487928697.6737881
tp944
a(F1487928625.7360101
F1487928694.9013071
tp945
a(F1487928625.3640561
F1487928689.7067571
tp946
a(F1487928625.642055
F1487928687.4606559
tp947
a(F1487928625.82182
F1487928671.4719601
tp948
a(F1487928625.4592061
F1487928666.018646
tp949
a(F1487928624.679472
F1487928668.2978661
tp950
a(F1487928625.6096871
F1487928765.4075191
tp951
a(F1487928625.7287459
F1487928698.5577199
tp952
a(F1487928625.431221
F1487928708.410877
tp953
a(F1487928625.3929861
F1487928681.326503
tp954
a(F1487928625.3816149
F1487928673.562676
tp955
a(F1487928625.4719551
F1487928679.7316329
tp956
a(F1487928625.0165701
F1487928705.6179259
tp957
a(F1487928627.2368
F1487928680.555232
tp958
a(F1487928625.5168779
F1487928694.271167
tp959
a(F1487928625.9703829
F1487928675.645473
tp960
a(F1487928625.4768851
F1487928729.88515
tp961
a(F1487928625.3870299
F1487928726.9496341
tp962
a(F1487928625.6528151
F1487928704.0203021
tp963
a(F1487928625.65486
F1487928663.0402191
tp964
a(F1487928625.620203
F1487928755.5967569
tp965
a(F1487928625.6924751
F1487928767.3631041
tp966
a(F1487928625.280153
F1487928665.083226
tp967
a(F1487928627.524564
F1487928745.2642701
tp968
a(F1487928625.4934499
F1487928661.8532269
tp969
a(F1487928625.901113
F1487928665.8252389
tp970
a(F1487928625.526243
F1487928694.7384
tp971
a(F1487928625.9085031
F1487928687.3741491
tp972
a(F1487928626.1572461
F1487928712.3859839
tp973
a(F1487928625.8205619
F1487928662.8716209
tp974
a(F1487928626.0203121
F1487928673.023217
tp975
a(F1487928625.842936
F1487928667.9498091
tp976
a(F1487928625.832864
F1487928707.231858
tp977
a(F1487928626.0071981
F1487928670.800463
tp978
a(F1487928626.648499
F1487928722.904526
tp979
a(F1487928625.652565
F1487928666.9614029
tp980
a(F1487928625.8674531
F1487928702.50262
tp981
a(F1487928625.534343
F1487928690.6761129
tp982
a(F1487928625.264312
F1487928726.7213349
tp983
a(F1487928625.731364
F1487928670.780134
tp984
a(F1487928625.880651
F1487928689.5143759
tp985
a(F1487928626.1007929
F1487928701.28479
tp986
a(F1487928629.49719
F1487928730.343941
tp987
a(F1487928625.8662369
F1487928682.0401461
tp988
a(F1487928625.5536389
F1487928694.2827051
tp989
a(F1487928625.6653061
F1487928721.71892
tp990
a(F1487928625.916476
F1487928663.9160261
tp991
a(F1487928626.7595601
F1487928712.2109621
tp992
a(F1487928626.922014
F1487928664.8078201
tp993
a(F1487928625.8165791
F1487928677.399616
tp994
a(F1487928625.657846
F1487928693.8557551
tp995
a(F1487928625.8330071
F1487928678.48155
tp996
a(F1487928626.2481201
F1487928691.3125689
tp997
a(F1487928625.4208429
F1487928680.694793
tp998
a(F1487928625.82584
F1487928749.641911
tp999
a(F1487928626.284585
F1487928669.8896649
tp1000
a(F1487928626.303215
F1487928689.705888
tp1001
a(F1487928626.6136861
F1487928691.9195621
tp1002
a(F1487928626.2377839
F1487928679.99384
tp1003
a(F1487928625.9777961
F1487928662.9668169
tp1004
a(F1487928625.756988
F1487928670.7362831
tp1005
a(F1487928626.1433761
F1487928658.8890891
tp1006
a(F1487928625.9094441
F1487928689.573904
tp1007
a(F1487928625.4139161
F1487928702.7786651
tp1008
a(F1487928625.6888831
F1487928699.7999749
tp1009
a(F1487928627.175797
F1487928696.731142
tp1010
a(F1487928627.519398
F1487928666.2441361
tp1011
a(F1487928626.65696
F1487928687.2015271
tp1012
a(F1487928625.810251
F1487928674.0188439
tp1013
a(F1487928625.727838
F1487928677.929389
tp1014
a(F1487928626.3053019
F1487928673.976536
tp1015
a(F1487928625.5902801
F1487928742.8485069
tp1016
a(F1487928626.5520959
F1487928677.2394171
tp1017
a(F1487928626.04303
F1487928699.4664209
tp1018
a(F1487928626.0438509
F1487928738.3367479
tp1019
a(F1487928625.819149
F1487928665.531162
tp1020
a(F1487928625.797209
F1487928733.416863
tp1021
a(F1487928626.2059851
F1487928666.872895
tp1022
a(F1487928625.4857759
F1487928707.886272
tp1023
a(F1487928625.7846179
F1487928786.1754451
tp1024
a(F1487928626.305203
F1487928677.9311171
tp1025
a(F1487928626.0760829
F1487928669.2805729
tp1026
a(F1487928625.998847
F1487928656.5742371
tp1027
a(F1487928626.2862561
F1487928704.3755131
tp1028
a(F1487928626.4096031
F1487928733.0473449
tp1029
a(F1487928626.291925
F1487928701.413193
tp1030
a(F1487928625.498518
F1487928674.069591
tp1031
a(F1487928626.2702689
F1487928676.71806
tp1032
a(F1487928625.731231
F1487928706.255331
tp1033
a(F1487928625.9064059
F1487928705.7220161
tp1034
a(F1487928626.5808921
F1487928699.099544
tp1035
a(F1487928626.359807
F1487928660.605242
tp1036
a(F1487928625.827992
F1487928691.6242831
tp1037
a(F1487928626.723002
F1487928687.1794879
tp1038
a(F1487928625.824327
F1487928695.7113171
tp1039
a(F1487928626.351732
F1487928653.1053369
tp1040
a(F1487928626.5676129
F1487928683.510865
tp1041
a(F1487928625.9290929
F1487928748.5514281
tp1042
a(F1487928626.2005169
F1487928683.727499
tp1043
a(F1487928626.0568731
F1487928687.944531
tp1044
a(F1487928626.4407389
F1487928710.2226429
tp1045
a(F1487928626.3381691
F1487928734.5256939
tp1046
a(F1487928626.328671
F1487928677.002161
tp1047
a(F1487928627.058018
F1487928691.056648
tp1048
a(F1487928625.5712259
F1487928714.2594061
tp1049
a(F1487928626.028491
F1487928674.1182549
tp1050
a(F1487928626.0319901
F1487928675.705826
tp1051
a(F1487928626.2345691
F1487928678.249666
tp1052
a(F1487928625.688324
F1487928707.5546911
tp1053
a(F1487928626.113981
F1487928701.870394
tp1054
a(F1487928626.5801439
F1487928709.2329111
tp1055
a(F1487928626.0638421
F1487928685.1549759
tp1056
a(F1487928626.4396429
F1487928659.750212
tp1057
a(F1487928626.096509
F1487928717.1502199
tp1058
a(F1487928626.6380639
F1487928711.5570409
tp1059
a(F1487928626.358043
F1487928680.11763
tp1060
a(F1487928626.1122971
F1487928729.9028499
tp1061
a(F1487928626.2912149
F1487928698.0552051
tp1062
a(F1487928626.331037
F1487928678.8079381
tp1063
a(F1487928625.7270229
F1487928673.7916141
tp1064
a(F1487928626.308634
F1487928737.096447
tp1065
a(F1487928626.223093
F1487928733.0098569
tp1066
a(F1487928626.1508751
F1487928669.4427691
tp1067
a(F1487928627.1411741
F1487928665.678061
tp1068
a(F1487928626.362711
F1487928682.7324669
tp1069
a(F1487928626.2278359
F1487928675.7219181
tp1070
a(F1487928626.261399
F1487928804.779959
tp1071
a(F1487928626.4365921
F1487928683.231595
tp1072
a(F1487928626.0548151
F1487928728.1410301
tp1073
a(F1487928627.111594
F1487928705.4723611
tp1074
a(F1487928626.4805341
F1487928698.4855909
tp1075
a(F1487928626.4498429
F1487928709.298234
tp1076
a(F1487928627.1323149
F1487928679.1211729
tp1077
a(F1487928626.5514309
F1487928701.6332591
tp1078
a(F1487928626.6845479
F1487928682.8497751
tp1079
a(F1487928627.223937
F1487928682.349395
tp1080
a(F1487928626.667274
F1487928688.964201
tp1081
a(F1487928626.2474141
F1487928702.1161411
tp1082
a(F1487928626.6241241
F1487928709.420258
tp1083
a(F1487928626.6817651
F1487928681.562243
tp1084
a(F1487928625.695823
F1487928709.5191059
tp1085
a(F1487928627.0789549
F1487928670.9098661
tp1086
a(F1487928626.1432199
F1487928717.1778841
tp1087
a(F1487928626.7973399
F1487928675.1549489
tp1088
a(F1487928626.2025919
F1487928720.6252069
tp1089
a(F1487928626.511426
F1487928739.5546229
tp1090
a(F1487928626.6520219
F1487928708.6290691
tp1091
a(F1487928626.3916819
F1487928687.951844
tp1092
a(F1487928626.637116
F1487928665.8308201
tp1093
a(F1487928626.484725
F1487928680.7087259
tp1094
a(F1487928626.4896569
F1487928760.1529181
tp1095
a(F1487928626.352982
F1487928728.8187201
tp1096
a(F1487928626.789067
F1487928664.3836529
tp1097
a(F1487928626.304879
F1487928664.2440939
tp1098
a(F1487928626.6000011
F1487928677.864291
tp1099
a(F1487928626.637419
F1487928698.000514
tp1100
a(F1487928626.489748
F1487928679.8875201
tp1101
a(F1487928626.4635921
F1487928671.309819
tp1102
a(F1487928626.2215559
F1487928756.17278
tp1103
a(F1487928626.7112341
F1487928668.7397511
tp1104
a(F1487928626.478879
F1487928673.9859221
tp1105
a(F1487928626.60291
F1487928690.997287
tp1106
a(F1487928626.046314
F1487928661.058512
tp1107
a(F1487928627.2727909
F1487928674.309381
tp1108
a(F1487928626.6057501
F1487928670.1549611
tp1109
a(F1487928626.606884
F1487928688.721772
tp1110
a(F1487928626.8253131
F1487928697.1540141
tp1111
a(F1487928626.877095
F1487928716.2138669
tp1112
a(F1487928626.9773431
F1487928765.7582419
tp1113
a(F1487928626.8040421
F1487928687.485029
tp1114
a(F1487928626.446347
F1487928698.338727
tp1115
a(F1487928626.66133
F1487928686.9453051
tp1116
a(F1487928626.779563
F1487928699.092113
tp1117
a(F1487928626.6729691
F1487928702.0509009
tp1118
a(F1487928626.1376741
F1487928692.9933519
tp1119
a(F1487928627.0286169
F1487928670.8970261
tp1120
a(F1487928626.7058589
F1487928675.3489709
tp1121
a(F1487928627.0280361
F1487928749.545362
tp1122
a(F1487928626.8929219
F1487928764.774699
tp1123
a(F1487928627.2292819
F1487928663.81918
tp1124
a(F1487928626.995594
F1487928722.5083051
tp1125
a(F1487928626.7406261
F1487928676.90365
tp1126
a(F1487928627.348949
F1487928677.428241
tp1127
a(F1487928627.319838
F1487928669.972424
tp1128
a(F1487928626.6393139
F1487928682.2649319
tp1129
a(F1487928626.7440059
F1487928665.2787409
tp1130
a(F1487928626.4443319
F1487928685.9954519
tp1131
a(F1487928627.075053
F1487928736.974124
tp1132
a(F1487928627.0965691
F1487928694.556613
tp1133
a(F1487928626.319397
F1487928689.37395
tp1134
a(F1487928626.4433179
F1487928704.5621231
tp1135
a(F1487928628.7321041
F1487928667.067179
tp1136
a(F1487928626.876199
F1487928767.1155541
tp1137
a(F1487928626.995887
F1487928684.5440371
tp1138
a(F1487928626.7741649
F1487928716.5836589
tp1139
a(F1487928627.2123461
F1487928711.5919831
tp1140
a(F1487928626.8729949
F1487928660.329205
tp1141
a(F1487928626.8721931
F1487928726.142693
tp1142
a(F1487928627.329067
F1487928661.1659861
tp1143
a(F1487928627.0465701
F1487928713.2890301
tp1144
a(F1487928626.7312191
F1487928695.663686
tp1145
a(F1487928627.2428041
F1487928667.682864
tp1146
a(F1487928627.0412951
F1487928669.7980411
tp1147
a(F1487928626.9436309
F1487928684.6910429
tp1148
a(F1487928627.309947
F1487928682.3053889
tp1149
a(F1487928627.053967
F1487928717.3996589
tp1150
a(F1487928626.8111761
F1487928707.915122
tp1151
a(F1487928626.738718
F1487928664.919095
tp1152
a(F1487928627.2748001
F1487928724.8026731
tp1153
a(F1487928627.212657
F1487928740.1898921
tp1154
a(F1487928626.9109769
F1487928657.034374
tp1155
a(F1487928626.8644271
F1487928672.3533161
tp1156
a(F1487928627.129724
F1487928672.43116
tp1157
a(F1487928627.4403119
F1487928698.7224679
tp1158
a(F1487928627.020999
F1487928698.492573
tp1159
a(F1487928627.105665
F1487928668.632458
tp1160
a(F1487928626.9670839
F1487928688.430196
tp1161
a(F1487928627.1937699
F1487928662.772033
tp1162
a(F1487928627.096462
F1487928700.817246
tp1163
a(F1487928627.3266151
F1487928703.704083
tp1164
a(F1487928627.56635
F1487928771.3256149
tp1165
a(F1487928627.3819129
F1487928801.0732009
tp1166
a(F1487928626.3211319
F1487928675.400038
tp1167
a(F1487928628.8368621
F1487928684.59553
tp1168
a(F1487928627.0921681
F1487928678.7116499
tp1169
a(F1487928627.3183219
F1487928681.4872971
tp1170
a(F1487928626.9741261
F1487928672.61869
tp1171
a(F1487928626.6821311
F1487928723.752501
tp1172
a(F1487928627.0532811
F1487928714.54232
tp1173
a(F1487928627.346535
F1487928667.2267201
tp1174
a(F1487928626.8504679
F1487928684.980022
tp1175
a(F1487928627.6389911
F1487928755.3509281
tp1176
a(F1487928627.665293
F1487928676.11006
tp1177
a(F1487928627.156806
F1487928679.0198121
tp1178
a(F1487928627.2368579
F1487928705.630168
tp1179
a(F1487928627.3959341
F1487928730.103631
tp1180
a(F1487928626.979939
F1487928753.056715
tp1181
a(F1487928626.9083619
F1487928728.620317
tp1182
a(F1487928627.2067339
F1487928684.1848929
tp1183
a(F1487928626.93226
F1487928694.6092179
tp1184
a(F1487928627.4910071
F1487928664.5077651
tp1185
a(F1487928627.0353971
F1487928716.113188
tp1186
a(F1487928627.619827
F1487928708.1703169
tp1187
a(F1487928627.3904481
F1487928718.6750669
tp1188
a(F1487928627.0967841
F1487928658.010361
tp1189
a(F1487928627.4488249
F1487928768.2884221
tp1190
a(F1487928627.322751
F1487928667.9319489
tp1191
a(F1487928627.8101389
F1487928725.7250559
tp1192
a(F1487928627.125355
F1487928684.0768261
tp1193
a(F1487928627.146661
F1487928696.6083291
tp1194
a(F1487928627.8676751
F1487928692.8612139
tp1195
a(F1487928628.374872
F1487928686.4276021
tp1196
a(F1487928627.5109861
F1487928703.7395179
tp1197
a(F1487928626.990406
F1487928773.0435281
tp1198
a(F1487928627.2612369
F1487928668.992909
tp1199
a(F1487928626.850348
F1487928709.7160809
tp1200
a(F1487928627.1849971
F1487928673.533042
tp1201
a(F1487928626.902487
F1487928674.9158499
tp1202
a(F1487928626.9267459
F1487928715.9987969
tp1203
a(F1487928627.160557
F1487928662.1805091
tp1204
a(F1487928627.4888539
F1487928788.651587
tp1205
a(F1487928626.778758
F1487928672.877105
tp1206
a(F1487928627.582607
F1487928669.011179
tp1207
a(F1487928627.3235691
F1487928675.03985
tp1208
a(F1487928627.4427509
F1487928683.7846041
tp1209
a(F1487928627.57231
F1487928769.109772
tp1210
a(F1487928627.3614681
F1487928683.7599411
tp1211
a(F1487928627.3342121
F1487928678.8884511
tp1212
a(F1487928626.993854
F1487928690.093972
tp1213
a(F1487928627.395359
F1487928688.445287
tp1214
a(F1487928627.10972
F1487928656.891603
tp1215
a(F1487928627.3200631
F1487928682.81864
tp1216
a(F1487928627.5285611
F1487928688.768321
tp1217
a(F1487928628.3339541
F1487928662.7496171
tp1218
a(F1487928627.438565
F1487928697.0819759
tp1219
a(F1487928626.8543961
F1487928676.7531941
tp1220
a(F1487928627.1001201
F1487928672.500509
tp1221
a(F1487928627.3771479
F1487928670.9521289
tp1222
a(F1487928628.6443329
F1487928663.94224
tp1223
a(F1487928627.1881919
F1487928700.787797
tp1224
a(F1487928627.955353
F1487928681.816448
tp1225
a(F1487928627.2407379
F1487928663.6593039
tp1226
a(F1487928627.3680151
F1487928716.8783729
tp1227
a(F1487928627.2737291
F1487928661.5227709
tp1228
a(F1487928627.5273941
F1487928664.9392891
tp1229
a(F1487928627.836395
F1487928781.668777
tp1230
a(F1487928627.4789951
F1487928681.245151
tp1231
a(F1487928629.1535511
F1487928767.9953361
tp1232
a(F1487928627.2338159
F1487928690.0403619
tp1233
a(F1487928627.5746601
F1487928675.7116981
tp1234
a(F1487928627.3946469
F1487928684.8937869
tp1235
a(F1487928627.4247639
F1487928673.984581
tp1236
a(F1487928627.706218
F1487928698.0410299
tp1237
a(F1487928628.8785529
F1487928744.7294409
tp1238
a(F1487928627.50207
F1487928679.26262
tp1239
a(F1487928627.7471509
F1487928807.824877
tp1240
a(F1487928627.542629
F1487928692.0547421
tp1241
a(F1487928627.5189719
F1487928669.8115671
tp1242
a(F1487928627.104537
F1487928682.3928659
tp1243
a(F1487928627.8384371
F1487928683.4540911
tp1244
a(F1487928627.9003849
F1487928694.698138
tp1245
a(F1487928628.003391
F1487928682.726105
tp1246
a(F1487928627.4283111
F1487928672.6072099
tp1247
a(F1487928627.4559169
F1487928673.7944551
tp1248
a(F1487928627.539624
F1487928704.970485
tp1249
a(F1487928629.010365
F1487928690.1333139
tp1250
a(F1487928627.862906
F1487928686.856952
tp1251
a(F1487928628.8284581
F1487928770.339848
tp1252
a(F1487928627.2144649
F1487928745.383656
tp1253
a(F1487928627.7998991
F1487928704.2071531
tp1254
a(F1487928627.652545
F1487928691.481894
tp1255
a(F1487928627.724406
F1487928679.534668
tp1256
a(F1487928627.6052599
F1487928663.4820781
tp1257
a(F1487928628.0237651
F1487928708.2495551
tp1258
a(F1487928627.6093819
F1487928700.1909699
tp1259
a(F1487928627.9893379
F1487928682.3534009
tp1260
a(F1487928627.733125
F1487928711.6485169
tp1261
a(F1487928627.4127719
F1487928669.1274121
tp1262
a(F1487928627.535867
F1487928704.803175
tp1263
a(F1487928627.4855289
F1487928674.136853
tp1264
a(F1487928628.043524
F1487928733.2083299
tp1265
a(F1487928628.8898649
F1487928765.127409
tp1266
a(F1487928628.289103
F1487928687.2756259
tp1267
a(F1487928628.003391
F1487928665.220839
tp1268
a(F1487928627.293951
F1487928669.534133
tp1269
a(F1487928627.863111
F1487928674.104537
tp1270
a(F1487928627.3897221
F1487928695.4296579
tp1271
a(F1487928627.8061621
F1487928686.173754
tp1272
a(F1487928627.745878
F1487928685.4881239
tp1273
a(F1487928628.834882
F1487928691.1668291
tp1274
a(F1487928627.848949
F1487928675.8006079
tp1275
a(F1487928627.7708399
F1487928731.632906
tp1276
a(F1487928627.495388
F1487928684.9940619
tp1277
a(F1487928627.8102641
F1487928706.047965
tp1278
a(F1487928627.874635
F1487928721.4099059
tp1279
a(F1487928628.656265
F1487928693.87063
tp1280
a(F1487928627.4958291
F1487928700.3718939
tp1281
a(F1487928627.5089869
F1487928708.2214999
tp1282
a(F1487928627.5644219
F1487928674.345515
tp1283
a(F1487928627.4336829
F1487928683.7287371
tp1284
a(F1487928628.4079511
F1487928799.0103769
tp1285
a(F1487928627.624347
F1487928713.8244541
tp1286
a(F1487928628.3042009
F1487928718.235677
tp1287
a(F1487928631.0245631
F1487928677.2967191
tp1288
a(F1487928628.870944
F1487928679.838799
tp1289
a(F1487928627.6889729
F1487928696.7654381
tp1290
a(F1487928627.8339441
F1487928676.3015831
tp1291
a(F1487928627.4555659
F1487928703.0411439
tp1292
a(F1487928627.755414
F1487928692.1288631
tp1293
a(F1487928628.635781
F1487928709.341114
tp1294
a(F1487928627.647723
F1487928721.2806301
tp1295
a(F1487928628.0001831
F1487928691.3913109
tp1296
a(F1487928628.3019199
F1487928736.1294291
tp1297
a(F1487928627.618082
F1487928762.782177
tp1298
a(F1487928627.710844
F1487928689.773037
tp1299
a(F1487928627.440634
F1487928688.1258969
tp1300
a(F1487928628.435149
F1487928665.3629789
tp1301
a(F1487928628.224314
F1487928715.1344149
tp1302
a(F1487928628.6223111
F1487928734.9514389
tp1303
a(F1487928627.4056189
F1487928679.399967
tp1304
a(F1487928628.3188701
F1487928731.529794
tp1305
a(F1487928628.040231
F1487928686.509289
tp1306
a(F1487928628.255753
F1487928695.1162419
tp1307
a(F1487928628.4276481
F1487928723.972131
tp1308
a(F1487928627.140003
F1487928663.1411409
tp1309
a(F1487928628.385252
F1487928664.854321
tp1310
a(F1487928627.845916
F1487928685.9564431
tp1311
a(F1487928628.923728
F1487928708.6632819
tp1312
a(F1487928628.749248
F1487928681.159101
tp1313
a(F1487928627.747262
F1487928683.47979
tp1314
a(F1487928628.4680099
F1487928732.055413
tp1315
a(F1487928628.3681951
F1487928725.8864131
tp1316
a(F1487928628.162889
F1487928684.1439581
tp1317
a(F1487928678.6200919
F1487928819.723969
tp1318
a(F1487928628.861918
F1487928687.43943
tp1319
a(F1487928627.8319111
F1487928686.782541
tp1320
a(F1487928628.6438999
F1487928695.15558
tp1321
a(F1487928628.2191429
F1487928693.548965
tp1322
a(F1487928628.70417
F1487928690.150835
tp1323
a(F1487928628.6560149
F1487928688.4897881
tp1324
a(F1487928628.729486
F1487928739.9998419
tp1325
a(F1487928628.141983
F1487928730.213887
tp1326
a(F1487928628.11677
F1487928678.3212111
tp1327
a(F1487928628.7457941
F1487928696.803642
tp1328
a(F1487928628.2037139
F1487928685.760608
tp1329
a(F1487928628.7284241
F1487928753.5534999
tp1330
a(F1487928628.0389581
F1487928687.3140581
tp1331
a(F1487928628.4002471
F1487928676.760632
tp1332
a(F1487928629.5664101
F1487928716.075496
tp1333
a(F1487928628.408344
F1487928660.404639
tp1334
a(F1487928628.3517261
F1487928763.0354431
tp1335
a(F1487928628.292227
F1487928682.9756491
tp1336
a(F1487928628.7352171
F1487928686.783025
tp1337
a(F1487928628.5397689
F1487928688.856724
tp1338
a(F1487928628.548414
F1487928768.150466
tp1339
a(F1487928628.6848919
F1487928684.5909469
tp1340
a(F1487928628.4145861
F1487928676.0053179
tp1341
a(F1487928628.254303
F1487928711.357029
tp1342
a(F1487928628.1477649
F1487928713.3201449
tp1343
a(F1487928679.070565
F1487928814.984416
tp1344
a(F1487928628.752454
F1487928682.012181
tp1345
a(F1487928628.628334
F1487928668.0107419
tp1346
a(F1487928627.714366
F1487928674.741544
tp1347
a(F1487928628.4016719
F1487928746.415832
tp1348
a(F1487928628.695364
F1487928696.9334819
tp1349
a(F1487928627.9705491
F1487928745.2699931
tp1350
a(F1487928628.899276
F1487928687.4618039
tp1351
a(F1487928628.2117169
F1487928761.922461
tp1352
a(F1487928628.621103
F1487928697.6477549
tp1353
a(F1487928629.063993
F1487928696.13429
tp1354
a(F1487928628.710984
F1487928692.22416
tp1355
a(F1487928628.99983
F1487928790.500195
tp1356
a(F1487928628.5964711
F1487928660.9066789
tp1357
a(F1487928628.4467039
F1487928722.6118541
tp1358
a(F1487928628.15202
F1487928689.0458579
tp1359
a(F1487928629.1980791
F1487928677.5616429
tp1360
a(F1487928628.1854589
F1487928730.308764
tp1361
a(F1487928629.4033279
F1487928689.9219551
tp1362
a(F1487928628.6407461
F1487928676.899507
tp1363
a(F1487928628.4269331
F1487928717.59495
tp1364
a(F1487928628.445837
F1487928666.3874121
tp1365
a(F1487928628.429749
F1487928797.347055
tp1366
a(F1487928628.9446521
F1487928673.8495629
tp1367
a(F1487928628.575877
F1487928723.8436151
tp1368
a(F1487928628.9604781
F1487928767.4110839
tp1369
a(F1487928628.104888
F1487928683.152571
tp1370
a(F1487928628.8619001
F1487928701.3706541
tp1371
a(F1487928629.3051009
F1487928710.2383649
tp1372
a(F1487928628.691757
F1487928686.5167439
tp1373
a(F1487928628.8859861
F1487928700.388238
tp1374
a(F1487928628.8998041
F1487928681.2328069
tp1375
a(F1487928628.6503501
F1487928774.7453949
tp1376
a(F1487928628.9865811
F1487928773.0084391
tp1377
a(F1487928628.5593579
F1487928675.339545
tp1378
a(F1487928628.629771
F1487928719.1026299
tp1379
a(F1487928628.9417851
F1487928675.441309
tp1380
a(F1487928628.581409
F1487928732.0157371
tp1381
a(F1487928627.8294809
F1487928666.7343841
tp1382
a(F1487928628.4342899
F1487928669.7276471
tp1383
a(F1487928628.8290391
F1487928679.690639
tp1384
a(F1487928628.861388
F1487928676.481041
tp1385
a(F1487928629.0052111
F1487928680.2785239
tp1386
a(F1487928628.6202431
F1487928686.815537
tp1387
a(F1487928629.0793259
F1487928678.1541059
tp1388
a(F1487928629.699053
F1487928777.1140859
tp1389
a(F1487928628.674468
F1487928707.204349
tp1390
a(F1487928629.6150551
F1487928699.847101
tp1391
a(F1487928628.916007
F1487928682.1792009
tp1392
a(F1487928628.6486471
F1487928702.152396
tp1393
a(F1487928629.1133261
F1487928709.233927
tp1394
a(F1487928630.8305681
F1487928688.22789
tp1395
a(F1487928628.8628819
F1487928683.402534
tp1396
a(F1487928629.6231141
F1487928726.0916309
tp1397
a(F1487928628.498383
F1487928750.4118879
tp1398
a(F1487928628.7797351
F1487928721.927799
tp1399
a(F1487928628.9551411
F1487928745.321106
tp1400
a(F1487928628.962323
F1487928720.6722119
tp1401
a(F1487928628.5443261
F1487928777.7999899
tp1402
a(F1487928628.9719551
F1487928668.520098
tp1403
a(F1487928628.9569941
F1487928790.975167
tp1404
a(F1487928628.719455
F1487928705.901942
tp1405
a(F1487928629.120105
F1487928684.842438
tp1406
a(F1487928631.0549221
F1487928700.3350821
tp1407
a(F1487928629.235136
F1487928671.6113811
tp1408
a(F1487928628.8985889
F1487928666.263839
tp1409
a(F1487928628.7772629
F1487928678.834682
tp1410
a(F1487928628.9980409
F1487928682.3998439
tp1411
a(F1487928628.729774
F1487928798.9813011
tp1412
a(F1487928630.2759449
F1487928746.7596929
tp1413
a(F1487928629.0304799
F1487928661.9965439
tp1414
a(F1487928629.138217
F1487928673.728646
tp1415
a(F1487928628.641957
F1487928737.9816229
tp1416
a(F1487928628.951874
F1487928704.8177991
tp1417
a(F1487928629.5361459
F1487928718.3410079
tp1418
a(F1487928628.862381
F1487928720.205425
tp1419
a(F1487928628.482846
F1487928697.0196099
tp1420
a(F1487928629.153887
F1487928726.73137
tp1421
a(F1487928629.4583859
F1487928692.442924
tp1422
a(F1487928628.5607009
F1487928728.6000459
tp1423
a(F1487928629.5345631
F1487928685.5769789
tp1424
a(F1487928628.223321
F1487928718.2735369
tp1425
a(F1487928629.12026
F1487928759.1944709
tp1426
a(F1487928629.081084
F1487928745.0917621
tp1427
a(F1487928629.1042709
F1487928678.9614739
tp1428
a(F1487928629.209944
F1487928710.155314
tp1429
a(F1487928628.977998
F1487928690.27948
tp1430
a(F1487928628.8958409
F1487928707.57219
tp1431
a(F1487928628.7864001
F1487928681.8575151
tp1432
a(F1487928629.1083579
F1487928691.9324059
tp1433
a(F1487928628.898566
F1487928677.4629469
tp1434
a(F1487928629.2672219
F1487928676.6275599
tp1435
a(F1487928631.6429529
F1487928721.012418
tp1436
a(F1487928629.4528949
F1487928689.9145949
tp1437
a(F1487928629.1020291
F1487928742.0579231
tp1438
a(F1487928629.5847011
F1487928736.0068309
tp1439
a(F1487928629.033638
F1487928696.135556
tp1440
a(F1487928629.3319881
F1487928766.21208
tp1441
a(F1487928628.9180689
F1487928729.2582469
tp1442
a(F1487928628.627459
F1487928674.905556
tp1443
a(F1487928628.4376831
F1487928660.936358
tp1444
a(F1487928629.407753
F1487928693.1978691
tp1445
a(F1487928629.090517
F1487928671.278028
tp1446
a(F1487928629.315089
F1487928681.1756189
tp1447
a(F1487928629.1356521
F1487928755.9373059
tp1448
a(F1487928629.4504859
F1487928682.850286
tp1449
a(F1487928629.2481689
F1487928723.30004
tp1450
a(F1487928629.2804019
F1487928692.0609219
tp1451
a(F1487928629.1900461
F1487928729.2856541
tp1452
a(F1487928629.090574
F1487928790.0991409
tp1453
a(F1487928629.2112279
F1487928733.523495
tp1454
a(F1487928629.2773261
F1487928700.2776761
tp1455
a(F1487928629.3068709
F1487928668.966574
tp1456
a(F1487928629.5963571
F1487928709.6849339
tp1457
a(F1487928628.843385
F1487928717.1646011
tp1458
a(F1487928629.220871
F1487928677.3431921
tp1459
a(F1487928629.3947799
F1487928779.0804679
tp1460
a(F1487928629.690989
F1487928667.7298739
tp1461
a(F1487928629.06177
F1487928686.71227
tp1462
a(F1487928629.2142029
F1487928710.2258179
tp1463
a(F1487928630.13832
F1487928712.7912331
tp1464
a(F1487928629.272707
F1487928676.318907
tp1465
a(F1487928629.154146
F1487928749.230685
tp1466
a(F1487928631.5334921
F1487928733.5591929
tp1467
a(F1487928629.3346851
F1487928685.5172241
tp1468
a(F1487928629.241034
F1487928694.470299
tp1469
a(F1487928629.419364
F1487928729.900166
tp1470
a(F1487928629.194021
F1487928681.4721589
tp1471
a(F1487928629.3051071
F1487928736.3317289
tp1472
a(F1487928629.4400849
F1487928689.4818821
tp1473
a(F1487928629.748503
F1487928691.3839071
tp1474
a(F1487928629.477035
F1487928777.691258
tp1475
a(F1487928632.8785579
F1487928759.8210521
tp1476
a(F1487928629.483196
F1487928702.5398929
tp1477
a(F1487928629.5277469
F1487928710.611645
tp1478
a(F1487928629.5081899
F1487928782.6647589
tp1479
a(F1487928629.5191591
F1487928740.7293799
tp1480
a(F1487928629.5975189
F1487928766.1693411
tp1481
a(F1487928630.2002339
F1487928754.14537
tp1482
a(F1487928630.0382421
F1487928714.4952841
tp1483
a(F1487928631.2016771
F1487928706.9250109
tp1484
a(F1487928629.7036259
F1487928724.6632781
tp1485
a(F1487928629.5554271
F1487928711.9850039
tp1486
a(F1487928629.25405
F1487928719.0561039
tp1487
a(F1487928628.9386799
F1487928708.5589609
tp1488
a(F1487928629.033725
F1487928760.4628129
tp1489
a(F1487928629.3940899
F1487928715.703542
tp1490
a(F1487928629.781394
F1487928726.482832
tp1491
a(F1487928629.4175739
F1487928793.2615471
tp1492
a(F1487928628.6955979
F1487928675.7243049
tp1493
a(F1487928629.474385
F1487928760.0461669
tp1494
a(F1487928629.555474
F1487928696.1711919
tp1495
a(F1487928629.777982
F1487928710.0851729
tp1496
a(F1487928629.4444051
F1487928686.8136079
tp1497
a(F1487928629.5717621
F1487928737.7137139
tp1498
a(F1487928629.687413
F1487928696.687402
tp1499
a(F1487928629.435735
F1487928730.594934
tp1500
a(F1487928629.7225881
F1487928777.0417669
tp1501
a(F1487928629.233609
F1487928667.6218281
tp1502
a(F1487928629.640219
F1487928681.9083321
tp1503
a(F1487928629.6840889
F1487928779.6992099
tp1504
a(F1487928629.6961811
F1487928686.837518
tp1505
a(F1487928629.3832719
F1487928665.532974
tp1506
a(F1487928630.206284
F1487928760.5239129
tp1507
a(F1487928628.7626481
F1487928740.9783759
tp1508
a(F1487928629.823509
F1487928717.3988681
tp1509
a(F1487928629.8968561
F1487928724.934386
tp1510
a(F1487928629.6941559
F1487928723.1000869
tp1511
a(F1487928629.478544
F1487928684.0445139
tp1512
a(F1487928640.8341701
F1487928731.8825819
tp1513
a(F1487928629.9407389
F1487928692.7851801
tp1514
a(F1487928629.66009
F1487928722.6943381
tp1515
a(F1487928631.121851
F1487928686.9014299
tp1516
a(F1487928629.508523
F1487928709.0012939
tp1517
a(F1487928631.55073
F1487928701.7798409
tp1518
a(F1487928629.7132061
F1487928678.989188
tp1519
a(F1487928630.0011699
F1487928734.625459
tp1520
a(F1487928630.8175421
F1487928697.2783101
tp1521
a(F1487928628.3097379
F1487928674.0730169
tp1522
a(F1487928629.6918631
F1487928708.933562
tp1523
a(F1487928629.8868639
F1487928690.7354081
tp1524
a(F1487928629.556917
F1487928717.79211
tp1525
a(F1487928630.0500841
F1487928688.7697301
tp1526
a(F1487928629.5765021
F1487928775.8174901
tp1527
a(F1487928630.0477879
F1487928687.6108689
tp1528
a(F1487928629.8821549
F1487928728.8790491
tp1529
a(F1487928629.521359
F1487928693.1942489
tp1530
a(F1487928629.6374159
F1487928803.2656929
tp1531
a(F1487928631.9508841
F1487928704.715879
tp1532
a(F1487928630.1602931
F1487928691.600929
tp1533
a(F1487928630.1252911
F1487928710.1510341
tp1534
a(F1487928629.5286601
F1487928738.1009729
tp1535
a(F1487928630.312026
F1487928697.3057871
tp1536
a(F1487928630.007947
F1487928684.490618
tp1537
a(F1487928629.6246791
F1487928676.653713
tp1538
a(F1487928629.603755
F1487928732.064347
tp1539
a(F1487928629.7946751
F1487928731.4166739
tp1540
a(F1487928629.8401129
F1487928742.2170329
tp1541
a(F1487928629.796417
F1487928691.6862271
tp1542
a(F1487928629.8605139
F1487928675.516547
tp1543
a(F1487928629.7437141
F1487928670.687989
tp1544
a(F1487928630.555599
F1487928671.9768021
tp1545
a(F1487928631.027113
F1487928673.4330189
tp1546
a(F1487928629.2254069
F1487928677.5943151
tp1547
a(F1487928629.731365
F1487928736.567414
tp1548
a(F1487928630.1271751
F1487928727.9715011
tp1549
a(F1487928630.0656209
F1487928781.998975
tp1550
a(F1487928630.088093
F1487928676.0575011
tp1551
a(F1487928630.0563481
F1487928734.5481811
tp1552
a(F1487928630.1194999
F1487928685.7178631
tp1553
a(F1487928631.3364511
F1487928690.4419439
tp1554
a(F1487928640.611099
F1487928772.974298
tp1555
a(F1487928630.1906021
F1487928679.2570801
tp1556
a(F1487928629.8863339
F1487928700.9779999
tp1557
a(F1487928632.1926761
F1487928704.022356
tp1558
a(F1487928630.496978
F1487928674.7571111
tp1559
a(F1487928630.4728961
F1487928712.2587509
tp1560
a(F1487928630.133172
F1487928671.63661
tp1561
a(F1487928630.207402
F1487928696.4473319
tp1562
a(F1487928630.093679
F1487928667.1511199
tp1563
a(F1487928632.1800389
F1487928738.5745449
tp1564
a(F1487928630.0413079
F1487928666.979142
tp1565
a(F1487928629.7593989
F1487928704.1047959
tp1566
a(F1487928630.06406
F1487928703.8416221
tp1567
a(F1487928630.3273129
F1487928724.7047031
tp1568
a(F1487928630.344239
F1487928678.3200319
tp1569
a(F1487928629.3032539
F1487928698.772886
tp1570
a(F1487928629.9978509
F1487928710.1417601
tp1571
a(F1487928630.567584
F1487928682.6683619
tp1572
a(F1487928629.830462
F1487928678.437598
tp1573
a(F1487928630.3572371
F1487928689.8738999
tp1574
a(F1487928630.179461
F1487928682.9923861
tp1575
a(F1487928630.06215
F1487928749.3798151
tp1576
a(F1487928630.2173009
F1487928679.9172299
tp1577
a(F1487928630.1797349
F1487928677.8673921
tp1578
a(F1487928630.2040901
F1487928672.937901
tp1579
a(F1487928630.426439
F1487928707.3098681
tp1580
a(F1487928631.7764201
F1487928704.385855
tp1581
a(F1487928630.6741841
F1487928685.2394979
tp1582
a(F1487928630.2888219
F1487928669.300868
tp1583
a(F1487928629.9143989
F1487928682.982101
tp1584
a(F1487928630.1685121
F1487928663.840075
tp1585
a(F1487928630.144556
F1487928678.3238111
tp1586
a(F1487928630.5814331
F1487928768.3712959
tp1587
a(F1487928629.8454001
F1487928681.6808281
tp1588
a(F1487928630.2564671
F1487928711.9877131
tp1589
a(F1487928630.2486529
F1487928708.2639439
tp1590
a(F1487928632.2393651
F1487928693.3618419
tp1591
a(F1487928630.057332
F1487928687.948447
tp1592
a(F1487928630.138674
F1487928751.2475131
tp1593
a(F1487928630.5294399
F1487928668.4904611
tp1594
a(F1487928630.2300739
F1487928702.9648399
tp1595
a(F1487928630.192328
F1487928705.476949
tp1596
a(F1487928630.408108
F1487928690.3021531
tp1597
a(F1487928630.434761
F1487928715.2974529
tp1598
a(F1487928630.5677841
F1487928761.601804
tp1599
a(F1487928630.55146
F1487928755.3949809
tp1600
a(F1487928630.147979
F1487928668.2845881
tp1601
a(F1487928630.240809
F1487928699.3838871
tp1602
a(F1487928629.157058
F1487928773.8700659
tp1603
a(F1487928630.780225
F1487928713.897464
tp1604
a(F1487928630.2987649
F1487928677.176687
tp1605
a(F1487928630.3755491
F1487928672.0397601
tp1606
a(F1487928631.4565461
F1487928689.150584
tp1607
a(F1487928630.277508
F1487928697.7784419
tp1608
a(F1487928631.5120721
F1487928691.681231
tp1609
a(F1487928630.3553779
F1487928696.264482
tp1610
a(F1487928630.174258
F1487928801.7039759
tp1611
a(F1487928630.267839
F1487928716.473135
tp1612
a(F1487928630.053781
F1487928765.43346
tp1613
a(F1487928630.535547
F1487928676.1827681
tp1614
a(F1487928630.6250739
F1487928732.3567801
tp1615
a(F1487928630.309515
F1487928684.7160461
tp1616
a(F1487928630.108758
F1487928668.3343899
tp1617
a(F1487928630.709692
F1487928695.7753241
tp1618
a(F1487928630.2413321
F1487928675.8997841
tp1619
a(F1487928630.413913
F1487928669.8170331
tp1620
a(F1487928630.1636679
F1487928681.834727
tp1621
a(F1487928630.0174141
F1487928660.8621171
tp1622
a(F1487928630.2109239
F1487928701.0170979
tp1623
a(F1487928630.7912011
F1487928725.209621
tp1624
a(F1487928630.438971
F1487928727.242347
tp1625
a(F1487928631.173106
F1487928789.6318691
tp1626
a(F1487928630.805696
F1487928718.5194099
tp1627
a(F1487928630.5516429
F1487928680.3458071
tp1628
a(F1487928631.11566
F1487928701.348161
tp1629
a(F1487928630.4802179
F1487928681.4791911
tp1630
a(F1487928631.355149
F1487928737.7607031
tp1631
a(F1487928629.2691391
F1487928699.5181501
tp1632
a(F1487928628.110188
F1487928702.3925271
tp1633
a(F1487928630.5846419
F1487928699.3643479
tp1634
a(F1487928630.3795829
F1487928688.670192
tp1635
a(F1487928630.4735279
F1487928702.9494431
tp1636
a(F1487928630.0305259
F1487928688.837425
tp1637
a(F1487928630.1265559
F1487928693.1559639
tp1638
a(F1487928630.6931779
F1487928703.3337929
tp1639
a(F1487928628.2620299
F1487928695.0462029
tp1640
a(F1487928630.7814281
F1487928733.8255789
tp1641
a(F1487928630.6982651
F1487928675.5984859
tp1642
a(F1487928630.9876699
F1487928735.0187089
tp1643
a(F1487928630.260366
F1487928698.6112671
tp1644
a(F1487928631.9466159
F1487928741.882374
tp1645
a(F1487928630.480669
F1487928689.938092
tp1646
a(F1487928630.5705669
F1487928698.6111951
tp1647
a(F1487928628.9057119
F1487928672.6031721
tp1648
a(F1487928630.4527049
F1487928732.4656451
tp1649
a(F1487928632.2475801
F1487928824.357759
tp1650
a(F1487928630.582113
F1487928681.924706
tp1651
a(F1487928630.3855619
F1487928716.392823
tp1652
a(F1487928629.019613
F1487928677.2940149
tp1653
a(F1487928628.1103799
F1487928677.818789
tp1654
a(F1487928633.0633941
F1487928757.3622069
tp1655
a(F1487928631.1012931
F1487928685.9656041
tp1656
a(F1487928630.676544
F1487928710.6330559
tp1657
a(F1487928628.1719379
F1487928682.1131549
tp1658
a(F1487928628.0712819
F1487928680.397115
tp1659
a(F1487928628.5272059
F1487928692.393393
tp1660
a(F1487928632.229651
F1487928691.848614
tp1661
a(F1487928631.7104621
F1487928716.7370739
tp1662
a(F1487928629.615366
F1487928675.9106319
tp1663
a(F1487928631.192353
F1487928668.7181809
tp1664
a(F1487928630.372515
F1487928668.5258651
tp1665
a(F1487928630.6834979
F1487928730.1080079
tp1666
a(F1487928675.934078
F1487928762.575752
tp1667
a(F1487928631.227571
F1487928668.6977291
tp1668
a.